

Microchip Technology PIC LITE Macro Assembler V2.00 build -1524193055 
                                                                                               Tue Aug 23 10:04:41 2022

Microchip Technology Omniscient Code Generator v2.00 (Free mode) build 20180527130849
     1  0000                     
      + 0000                     
     2                           ; Version 2.00
     3                           ; Generated 27/05/2018 GMT
     4                           
     5                           ; 
     6                           ; Copyright © 2018, Microchip Technology Inc. and its subsidiaries ("Microchip")
     7                           ; All rights reserved.
     8                           ; 
     9                           ; This software is developed by Microchip Technology Inc. and its subsidiaries ("Microch
                                 ip").
    10                           ; 
    11                           ; Redistribution and use in source and binary forms, with or without modification, are
    12                           ; permitted provided that the following conditions are met:
    13                           ; 
    14                           ;     1. Redistributions of source code must retain the above copyright notice, this lis
                                 t of
    15                           ;        conditions and the following disclaimer.
    16                           ; 
    17                           ;     2. Redistributions in binary form must reproduce the above copyright notice, this 
                                 list
    18                           ;        of conditions and the following disclaimer in the documentation and/or other
    19                           ;        materials provided with the distribution.
    20                           ; 
    21                           ;     3. Microchip's name may not be used to endorse or promote products derived from th
                                 is
    22                           ;        software without specific prior written permission.
    23                           ; 
    24                           ; THIS SOFTWARE IS PROVIDED BY MICROCHIP "AS IS" AND ANY EXPRESS OR IMPLIED WARRANTIES,

    25                           ; INCLUDING, BUT NOT LIMITED TO, THE IMPLIED WARRANTIES OF MERCHANTABILITY AND FITNESS F
                                 OR
    26                           ; PURPOSE ARE DISCLAIMED.  IN NO EVENT SHALL MICROCHIP BE LIABLE FOR ANY DIRECT, INDIREC
                                 T,
    27                           ; INCIDENTAL, SPECIAL, EXEMPLARY, OR CONSEQUENTIAL DAMAGES (INCLUDING BUT NOT LIMITED TO
                                 
    28                           ; PROCUREMENT OF SUBSTITUTE GOODS OR SERVICES; LOSS OF USE, DATA OR PROFITS; OR BUSINESS
                                 
    29                           ; INTERRUPTION) HOWSOEVER CAUSED AND ON ANY THEORY OF LIABILITY, WHETHER IN CONTRACT, ST
                                 RICT
    30                           ; LIABILITY, OR TORT (INCLUDING NEGLIGENCE OR OTHERWISE) ARISING IN ANY WAY OUT OF THE U
                                 SE OF
    31                           ; THIS SOFTWARE, EVEN IF ADVISED OF THE POSSIBILITY OF SUCH DAMAGE.
    32                           ; 
    33                           
    34                           
    35                           ; 
    36                           ; Code-generator required, PIC16F887 Definitions
    37                           ; 
    38  0004                     fsr0 equ 04h
    39  0004                     indf equ 00h
    40  0000                     indf0 equ 00h
    41  0000                     pc equ 02h
    42  0002                     pcl equ 02h
    43  0002                     pclath equ 0Ah
    44  000A                     status equ 03h
    45  0003                     
     2                           opt pagewidth 120
     3  0000                     byte0	macro	val
     4                           	(getbyte(val,0))
     5                           endm
     6  0000                     byte1	macro	val
     7                           	(getbyte(val,1))
     8                           endm
     9  0000                     byte2	macro	val
    10                           	(getbyte(val,2))
    11                           endm
    12  0000                     byte3	macro	val
    13                           	(getbyte(val,3))
    14                           endm
    15  0000                     byte4	macro	val
    16                           	(getbyte(val,4))
    17                           endm
    18  0000                     byte5	macro	val
    19                           	(getbyte(val,5))
    20                           endm
    21  0000                     byte6	macro	val
    22                           	(getbyte(val,6))
    23                           endm
    24  0000                     byte7	macro	val
    25                           	(getbyte(val,7))
    26                           endm
    27  0000                     getword	macro	val,pos
    28                           	(((val) >> (8 * pos)) and 0xffff)
    29                           endm
    30  0000                     word0	macro	val
    31                           	(getword(val,0))
    32                           endm
    33  0000                     word1	macro	val
    34                           	(getword(val,2))
    35                           endm
    36  0000                     word2	macro	val
    37                           	(getword(val,4))
    38                           endm
    39  0000                     word3	macro	val
    40                           	(getword(val,6))
    41                           endm
    42  0000                     gettword	macro	val,pos
    43                           	(((val) >> (8 * pos)) and 0xffffff)
    44                           endm
    45  0000                     tword0	macro	val
    46                           	(gettword(val,0))
    47                           endm
    48  0000                     tword1	macro	val
    49                           	(gettword(val,3))
    50                           endm
    51  0000                     tword2	macro	val
    52                           	(gettword(val,6))
    53                           endm
    54  0000                     getdword	macro	val,pos
    55                           	(((val) >> (8 * pos)) and 0xffffffff)
    56                           endm
    57  0000                     dword0	macro	val
    58                           	(getdword(val,0))
    59                           endm
    60  0000                     dword1	macro	val
    61                           	(getdword(val,4))
    62                           endm
    63  0000                     clrc	macro
    64                           	bcf	3,0
    65                           	endm
    66  0000                     clrz	macro
    67                           	bcf	3,2
    68                           	endm
    69  0000                     setc	macro
    70                           	bsf	3,0
    71                           	endm
    72  0000                     setz	macro
    73                           	bsf	3,2
    74                           	endm
    75  0000                     skipc	macro
    76                           	btfss	3,0
    77                           	endm
    78  0000                     skipz	macro
    79                           	btfss	3,2
    80                           	endm
    81  0000                     skipnc	macro
    82                           	btfsc	3,0
    83                           	endm
    84  0000                     skipnz	macro
    85                           	btfsc	3,2
    86                           	endm
    87  0000                     # 54 "C:\Program Files (x86)\Microchip\xc8\v2.00\pic\include\pic16f887.h"
    88                           INDF equ 00h ;# 
    89  0000                     # 61 "C:\Program Files (x86)\Microchip\xc8\v2.00\pic\include\pic16f887.h"
    90                           TMR0 equ 01h ;# 
    91  0001                     # 68 "C:\Program Files (x86)\Microchip\xc8\v2.00\pic\include\pic16f887.h"
    92                           PCL equ 02h ;# 
    93  0002                     # 75 "C:\Program Files (x86)\Microchip\xc8\v2.00\pic\include\pic16f887.h"
    94                           STATUS equ 03h ;# 
    95  0003                     # 161 "C:\Program Files (x86)\Microchip\xc8\v2.00\pic\include\pic16f887.h"
    96                           FSR equ 04h ;# 
    97  0004                     # 168 "C:\Program Files (x86)\Microchip\xc8\v2.00\pic\include\pic16f887.h"
    98                           PORTA equ 05h ;# 
    99  0005                     # 230 "C:\Program Files (x86)\Microchip\xc8\v2.00\pic\include\pic16f887.h"
   100                           PORTB equ 06h ;# 
   101  0006                     # 292 "C:\Program Files (x86)\Microchip\xc8\v2.00\pic\include\pic16f887.h"
   102                           PORTC equ 07h ;# 
   103  0007                     # 354 "C:\Program Files (x86)\Microchip\xc8\v2.00\pic\include\pic16f887.h"
   104                           PORTD equ 08h ;# 
   105  0008                     # 416 "C:\Program Files (x86)\Microchip\xc8\v2.00\pic\include\pic16f887.h"
   106                           PORTE equ 09h ;# 
   107  0009                     # 454 "C:\Program Files (x86)\Microchip\xc8\v2.00\pic\include\pic16f887.h"
   108                           PCLATH equ 0Ah ;# 
   109  000A                     # 461 "C:\Program Files (x86)\Microchip\xc8\v2.00\pic\include\pic16f887.h"
   110                           INTCON equ 0Bh ;# 
   111  000B                     # 539 "C:\Program Files (x86)\Microchip\xc8\v2.00\pic\include\pic16f887.h"
   112                           PIR1 equ 0Ch ;# 
   113  000C                     # 595 "C:\Program Files (x86)\Microchip\xc8\v2.00\pic\include\pic16f887.h"
   114                           PIR2 equ 0Dh ;# 
   115  000D                     # 652 "C:\Program Files (x86)\Microchip\xc8\v2.00\pic\include\pic16f887.h"
   116                           TMR1 equ 0Eh ;# 
   117  000E                     # 659 "C:\Program Files (x86)\Microchip\xc8\v2.00\pic\include\pic16f887.h"
   118                           TMR1L equ 0Eh ;# 
   119  000E                     # 666 "C:\Program Files (x86)\Microchip\xc8\v2.00\pic\include\pic16f887.h"
   120                           TMR1H equ 0Fh ;# 
   121  000F                     # 673 "C:\Program Files (x86)\Microchip\xc8\v2.00\pic\include\pic16f887.h"
   122                           T1CON equ 010h ;# 
   123  0010                     # 767 "C:\Program Files (x86)\Microchip\xc8\v2.00\pic\include\pic16f887.h"
   124                           TMR2 equ 011h ;# 
   125  0011                     # 774 "C:\Program Files (x86)\Microchip\xc8\v2.00\pic\include\pic16f887.h"
   126                           T2CON equ 012h ;# 
   127  0012                     # 845 "C:\Program Files (x86)\Microchip\xc8\v2.00\pic\include\pic16f887.h"
   128                           SSPBUF equ 013h ;# 
   129  0013                     # 852 "C:\Program Files (x86)\Microchip\xc8\v2.00\pic\include\pic16f887.h"
   130                           SSPCON equ 014h ;# 
   131  0014                     # 922 "C:\Program Files (x86)\Microchip\xc8\v2.00\pic\include\pic16f887.h"
   132                           CCPR1 equ 015h ;# 
   133  0015                     # 929 "C:\Program Files (x86)\Microchip\xc8\v2.00\pic\include\pic16f887.h"
   134                           CCPR1L equ 015h ;# 
   135  0015                     # 936 "C:\Program Files (x86)\Microchip\xc8\v2.00\pic\include\pic16f887.h"
   136                           CCPR1H equ 016h ;# 
   137  0016                     # 943 "C:\Program Files (x86)\Microchip\xc8\v2.00\pic\include\pic16f887.h"
   138                           CCP1CON equ 017h ;# 
   139  0017                     # 1040 "C:\Program Files (x86)\Microchip\xc8\v2.00\pic\include\pic16f887.h"
   140                           RCSTA equ 018h ;# 
   141  0018                     # 1135 "C:\Program Files (x86)\Microchip\xc8\v2.00\pic\include\pic16f887.h"
   142                           TXREG equ 019h ;# 
   143  0019                     # 1142 "C:\Program Files (x86)\Microchip\xc8\v2.00\pic\include\pic16f887.h"
   144                           RCREG equ 01Ah ;# 
   145  001A                     # 1149 "C:\Program Files (x86)\Microchip\xc8\v2.00\pic\include\pic16f887.h"
   146                           CCPR2 equ 01Bh ;# 
   147  001B                     # 1156 "C:\Program Files (x86)\Microchip\xc8\v2.00\pic\include\pic16f887.h"
   148                           CCPR2L equ 01Bh ;# 
   149  001B                     # 1163 "C:\Program Files (x86)\Microchip\xc8\v2.00\pic\include\pic16f887.h"
   150                           CCPR2H equ 01Ch ;# 
   151  001C                     # 1170 "C:\Program Files (x86)\Microchip\xc8\v2.00\pic\include\pic16f887.h"
   152                           CCP2CON equ 01Dh ;# 
   153  001D                     # 1240 "C:\Program Files (x86)\Microchip\xc8\v2.00\pic\include\pic16f887.h"
   154                           ADRESH equ 01Eh ;# 
   155  001E                     # 1247 "C:\Program Files (x86)\Microchip\xc8\v2.00\pic\include\pic16f887.h"
   156                           ADCON0 equ 01Fh ;# 
   157  001F                     # 1348 "C:\Program Files (x86)\Microchip\xc8\v2.00\pic\include\pic16f887.h"
   158                           OPTION_REG equ 081h ;# 
   159  0081                     # 1418 "C:\Program Files (x86)\Microchip\xc8\v2.00\pic\include\pic16f887.h"
   160                           TRISA equ 085h ;# 
   161  0085                     # 1480 "C:\Program Files (x86)\Microchip\xc8\v2.00\pic\include\pic16f887.h"
   162                           TRISB equ 086h ;# 
   163  0086                     # 1542 "C:\Program Files (x86)\Microchip\xc8\v2.00\pic\include\pic16f887.h"
   164                           TRISC equ 087h ;# 
   165  0087                     # 1604 "C:\Program Files (x86)\Microchip\xc8\v2.00\pic\include\pic16f887.h"
   166                           TRISD equ 088h ;# 
   167  0088                     # 1666 "C:\Program Files (x86)\Microchip\xc8\v2.00\pic\include\pic16f887.h"
   168                           TRISE equ 089h ;# 
   169  0089                     # 1704 "C:\Program Files (x86)\Microchip\xc8\v2.00\pic\include\pic16f887.h"
   170                           PIE1 equ 08Ch ;# 
   171  008C                     # 1760 "C:\Program Files (x86)\Microchip\xc8\v2.00\pic\include\pic16f887.h"
   172                           PIE2 equ 08Dh ;# 
   173  008D                     # 1817 "C:\Program Files (x86)\Microchip\xc8\v2.00\pic\include\pic16f887.h"
   174                           PCON equ 08Eh ;# 
   175  008E                     # 1864 "C:\Program Files (x86)\Microchip\xc8\v2.00\pic\include\pic16f887.h"
   176                           OSCCON equ 08Fh ;# 
   177  008F                     # 1929 "C:\Program Files (x86)\Microchip\xc8\v2.00\pic\include\pic16f887.h"
   178                           OSCTUNE equ 090h ;# 
   179  0090                     # 1981 "C:\Program Files (x86)\Microchip\xc8\v2.00\pic\include\pic16f887.h"
   180                           SSPCON2 equ 091h ;# 
   181  0091                     # 2043 "C:\Program Files (x86)\Microchip\xc8\v2.00\pic\include\pic16f887.h"
   182                           PR2 equ 092h ;# 
   183  0092                     # 2050 "C:\Program Files (x86)\Microchip\xc8\v2.00\pic\include\pic16f887.h"
   184                           SSPADD equ 093h ;# 
   185  0093                     # 2057 "C:\Program Files (x86)\Microchip\xc8\v2.00\pic\include\pic16f887.h"
   186                           SSPMSK equ 093h ;# 
   187  0093                     # 2062 "C:\Program Files (x86)\Microchip\xc8\v2.00\pic\include\pic16f887.h"
   188                           MSK equ 093h ;# 
   189  0093                     # 2179 "C:\Program Files (x86)\Microchip\xc8\v2.00\pic\include\pic16f887.h"
   190                           SSPSTAT equ 094h ;# 
   191  0094                     # 2348 "C:\Program Files (x86)\Microchip\xc8\v2.00\pic\include\pic16f887.h"
   192                           WPUB equ 095h ;# 
   193  0095                     # 2418 "C:\Program Files (x86)\Microchip\xc8\v2.00\pic\include\pic16f887.h"
   194                           IOCB equ 096h ;# 
   195  0096                     # 2488 "C:\Program Files (x86)\Microchip\xc8\v2.00\pic\include\pic16f887.h"
   196                           VRCON equ 097h ;# 
   197  0097                     # 2558 "C:\Program Files (x86)\Microchip\xc8\v2.00\pic\include\pic16f887.h"
   198                           TXSTA equ 098h ;# 
   199  0098                     # 2644 "C:\Program Files (x86)\Microchip\xc8\v2.00\pic\include\pic16f887.h"
   200                           SPBRG equ 099h ;# 
   201  0099                     # 2706 "C:\Program Files (x86)\Microchip\xc8\v2.00\pic\include\pic16f887.h"
   202                           SPBRGH equ 09Ah ;# 
   203  009A                     # 2776 "C:\Program Files (x86)\Microchip\xc8\v2.00\pic\include\pic16f887.h"
   204                           PWM1CON equ 09Bh ;# 
   205  009B                     # 2846 "C:\Program Files (x86)\Microchip\xc8\v2.00\pic\include\pic16f887.h"
   206                           ECCPAS equ 09Ch ;# 
   207  009C                     # 2928 "C:\Program Files (x86)\Microchip\xc8\v2.00\pic\include\pic16f887.h"
   208                           PSTRCON equ 09Dh ;# 
   209  009D                     # 2972 "C:\Program Files (x86)\Microchip\xc8\v2.00\pic\include\pic16f887.h"
   210                           ADRESL equ 09Eh ;# 
   211  009E                     # 2979 "C:\Program Files (x86)\Microchip\xc8\v2.00\pic\include\pic16f887.h"
   212                           ADCON1 equ 09Fh ;# 
   213  009F                     # 3013 "C:\Program Files (x86)\Microchip\xc8\v2.00\pic\include\pic16f887.h"
   214                           WDTCON equ 0105h ;# 
   215  0105                     # 3066 "C:\Program Files (x86)\Microchip\xc8\v2.00\pic\include\pic16f887.h"
   216                           CM1CON0 equ 0107h ;# 
   217  0107                     # 3131 "C:\Program Files (x86)\Microchip\xc8\v2.00\pic\include\pic16f887.h"
   218                           CM2CON0 equ 0108h ;# 
   219  0108                     # 3196 "C:\Program Files (x86)\Microchip\xc8\v2.00\pic\include\pic16f887.h"
   220                           CM2CON1 equ 0109h ;# 
   221  0109                     # 3247 "C:\Program Files (x86)\Microchip\xc8\v2.00\pic\include\pic16f887.h"
   222                           EEDATA equ 010Ch ;# 
   223  010C                     # 3252 "C:\Program Files (x86)\Microchip\xc8\v2.00\pic\include\pic16f887.h"
   224                           EEDAT equ 010Ch ;# 
   225  010C                     # 3259 "C:\Program Files (x86)\Microchip\xc8\v2.00\pic\include\pic16f887.h"
   226                           EEADR equ 010Dh ;# 
   227  010D                     # 3266 "C:\Program Files (x86)\Microchip\xc8\v2.00\pic\include\pic16f887.h"
   228                           EEDATH equ 010Eh ;# 
   229  010E                     # 3273 "C:\Program Files (x86)\Microchip\xc8\v2.00\pic\include\pic16f887.h"
   230                           EEADRH equ 010Fh ;# 
   231  010F                     # 3280 "C:\Program Files (x86)\Microchip\xc8\v2.00\pic\include\pic16f887.h"
   232                           SRCON equ 0185h ;# 
   233  0185                     # 3337 "C:\Program Files (x86)\Microchip\xc8\v2.00\pic\include\pic16f887.h"
   234                           BAUDCTL equ 0187h ;# 
   235  0187                     # 3389 "C:\Program Files (x86)\Microchip\xc8\v2.00\pic\include\pic16f887.h"
   236                           ANSEL equ 0188h ;# 
   237  0188                     # 3451 "C:\Program Files (x86)\Microchip\xc8\v2.00\pic\include\pic16f887.h"
   238                           ANSELH equ 0189h ;# 
   239  0189                     # 3501 "C:\Program Files (x86)\Microchip\xc8\v2.00\pic\include\pic16f887.h"
   240                           EECON1 equ 018Ch ;# 
   241  018C                     # 3546 "C:\Program Files (x86)\Microchip\xc8\v2.00\pic\include\pic16f887.h"
   242                           EECON2 equ 018Dh ;# 
   243  018D                     # 54 "C:\Program Files (x86)\Microchip\xc8\v2.00\pic\include\pic16f887.h"
   244                           INDF equ 00h ;# 
   245  0000                     # 61 "C:\Program Files (x86)\Microchip\xc8\v2.00\pic\include\pic16f887.h"
   246                           TMR0 equ 01h ;# 
   247  0001                     # 68 "C:\Program Files (x86)\Microchip\xc8\v2.00\pic\include\pic16f887.h"
   248                           PCL equ 02h ;# 
   249  0002                     # 75 "C:\Program Files (x86)\Microchip\xc8\v2.00\pic\include\pic16f887.h"
   250                           STATUS equ 03h ;# 
   251  0003                     # 161 "C:\Program Files (x86)\Microchip\xc8\v2.00\pic\include\pic16f887.h"
   252                           FSR equ 04h ;# 
   253  0004                     # 168 "C:\Program Files (x86)\Microchip\xc8\v2.00\pic\include\pic16f887.h"
   254                           PORTA equ 05h ;# 
   255  0005                     # 230 "C:\Program Files (x86)\Microchip\xc8\v2.00\pic\include\pic16f887.h"
   256                           PORTB equ 06h ;# 
   257  0006                     # 292 "C:\Program Files (x86)\Microchip\xc8\v2.00\pic\include\pic16f887.h"
   258                           PORTC equ 07h ;# 
   259  0007                     # 354 "C:\Program Files (x86)\Microchip\xc8\v2.00\pic\include\pic16f887.h"
   260                           PORTD equ 08h ;# 
   261  0008                     # 416 "C:\Program Files (x86)\Microchip\xc8\v2.00\pic\include\pic16f887.h"
   262                           PORTE equ 09h ;# 
   263  0009                     # 454 "C:\Program Files (x86)\Microchip\xc8\v2.00\pic\include\pic16f887.h"
   264                           PCLATH equ 0Ah ;# 
   265  000A                     # 461 "C:\Program Files (x86)\Microchip\xc8\v2.00\pic\include\pic16f887.h"
   266                           INTCON equ 0Bh ;# 
   267  000B                     # 539 "C:\Program Files (x86)\Microchip\xc8\v2.00\pic\include\pic16f887.h"
   268                           PIR1 equ 0Ch ;# 
   269  000C                     # 595 "C:\Program Files (x86)\Microchip\xc8\v2.00\pic\include\pic16f887.h"
   270                           PIR2 equ 0Dh ;# 
   271  000D                     # 652 "C:\Program Files (x86)\Microchip\xc8\v2.00\pic\include\pic16f887.h"
   272                           TMR1 equ 0Eh ;# 
   273  000E                     # 659 "C:\Program Files (x86)\Microchip\xc8\v2.00\pic\include\pic16f887.h"
   274                           TMR1L equ 0Eh ;# 
   275  000E                     # 666 "C:\Program Files (x86)\Microchip\xc8\v2.00\pic\include\pic16f887.h"
   276                           TMR1H equ 0Fh ;# 
   277  000F                     # 673 "C:\Program Files (x86)\Microchip\xc8\v2.00\pic\include\pic16f887.h"
   278                           T1CON equ 010h ;# 
   279  0010                     # 767 "C:\Program Files (x86)\Microchip\xc8\v2.00\pic\include\pic16f887.h"
   280                           TMR2 equ 011h ;# 
   281  0011                     # 774 "C:\Program Files (x86)\Microchip\xc8\v2.00\pic\include\pic16f887.h"
   282                           T2CON equ 012h ;# 
   283  0012                     # 845 "C:\Program Files (x86)\Microchip\xc8\v2.00\pic\include\pic16f887.h"
   284                           SSPBUF equ 013h ;# 
   285  0013                     # 852 "C:\Program Files (x86)\Microchip\xc8\v2.00\pic\include\pic16f887.h"
   286                           SSPCON equ 014h ;# 
   287  0014                     # 922 "C:\Program Files (x86)\Microchip\xc8\v2.00\pic\include\pic16f887.h"
   288                           CCPR1 equ 015h ;# 
   289  0015                     # 929 "C:\Program Files (x86)\Microchip\xc8\v2.00\pic\include\pic16f887.h"
   290                           CCPR1L equ 015h ;# 
   291  0015                     # 936 "C:\Program Files (x86)\Microchip\xc8\v2.00\pic\include\pic16f887.h"
   292                           CCPR1H equ 016h ;# 
   293  0016                     # 943 "C:\Program Files (x86)\Microchip\xc8\v2.00\pic\include\pic16f887.h"
   294                           CCP1CON equ 017h ;# 
   295  0017                     # 1040 "C:\Program Files (x86)\Microchip\xc8\v2.00\pic\include\pic16f887.h"
   296                           RCSTA equ 018h ;# 
   297  0018                     # 1135 "C:\Program Files (x86)\Microchip\xc8\v2.00\pic\include\pic16f887.h"
   298                           TXREG equ 019h ;# 
   299  0019                     # 1142 "C:\Program Files (x86)\Microchip\xc8\v2.00\pic\include\pic16f887.h"
   300                           RCREG equ 01Ah ;# 
   301  001A                     # 1149 "C:\Program Files (x86)\Microchip\xc8\v2.00\pic\include\pic16f887.h"
   302                           CCPR2 equ 01Bh ;# 
   303  001B                     # 1156 "C:\Program Files (x86)\Microchip\xc8\v2.00\pic\include\pic16f887.h"
   304                           CCPR2L equ 01Bh ;# 
   305  001B                     # 1163 "C:\Program Files (x86)\Microchip\xc8\v2.00\pic\include\pic16f887.h"
   306                           CCPR2H equ 01Ch ;# 
   307  001C                     # 1170 "C:\Program Files (x86)\Microchip\xc8\v2.00\pic\include\pic16f887.h"
   308                           CCP2CON equ 01Dh ;# 
   309  001D                     # 1240 "C:\Program Files (x86)\Microchip\xc8\v2.00\pic\include\pic16f887.h"
   310                           ADRESH equ 01Eh ;# 
   311  001E                     # 1247 "C:\Program Files (x86)\Microchip\xc8\v2.00\pic\include\pic16f887.h"
   312                           ADCON0 equ 01Fh ;# 
   313  001F                     # 1348 "C:\Program Files (x86)\Microchip\xc8\v2.00\pic\include\pic16f887.h"
   314                           OPTION_REG equ 081h ;# 
   315  0081                     # 1418 "C:\Program Files (x86)\Microchip\xc8\v2.00\pic\include\pic16f887.h"
   316                           TRISA equ 085h ;# 
   317  0085                     # 1480 "C:\Program Files (x86)\Microchip\xc8\v2.00\pic\include\pic16f887.h"
   318                           TRISB equ 086h ;# 
   319  0086                     # 1542 "C:\Program Files (x86)\Microchip\xc8\v2.00\pic\include\pic16f887.h"
   320                           TRISC equ 087h ;# 
   321  0087                     # 1604 "C:\Program Files (x86)\Microchip\xc8\v2.00\pic\include\pic16f887.h"
   322                           TRISD equ 088h ;# 
   323  0088                     # 1666 "C:\Program Files (x86)\Microchip\xc8\v2.00\pic\include\pic16f887.h"
   324                           TRISE equ 089h ;# 
   325  0089                     # 1704 "C:\Program Files (x86)\Microchip\xc8\v2.00\pic\include\pic16f887.h"
   326                           PIE1 equ 08Ch ;# 
   327  008C                     # 1760 "C:\Program Files (x86)\Microchip\xc8\v2.00\pic\include\pic16f887.h"
   328                           PIE2 equ 08Dh ;# 
   329  008D                     # 1817 "C:\Program Files (x86)\Microchip\xc8\v2.00\pic\include\pic16f887.h"
   330                           PCON equ 08Eh ;# 
   331  008E                     # 1864 "C:\Program Files (x86)\Microchip\xc8\v2.00\pic\include\pic16f887.h"
   332                           OSCCON equ 08Fh ;# 
   333  008F                     # 1929 "C:\Program Files (x86)\Microchip\xc8\v2.00\pic\include\pic16f887.h"
   334                           OSCTUNE equ 090h ;# 
   335  0090                     # 1981 "C:\Program Files (x86)\Microchip\xc8\v2.00\pic\include\pic16f887.h"
   336                           SSPCON2 equ 091h ;# 
   337  0091                     # 2043 "C:\Program Files (x86)\Microchip\xc8\v2.00\pic\include\pic16f887.h"
   338                           PR2 equ 092h ;# 
   339  0092                     # 2050 "C:\Program Files (x86)\Microchip\xc8\v2.00\pic\include\pic16f887.h"
   340                           SSPADD equ 093h ;# 
   341  0093                     # 2057 "C:\Program Files (x86)\Microchip\xc8\v2.00\pic\include\pic16f887.h"
   342                           SSPMSK equ 093h ;# 
   343  0093                     # 2062 "C:\Program Files (x86)\Microchip\xc8\v2.00\pic\include\pic16f887.h"
   344                           MSK equ 093h ;# 
   345  0093                     # 2179 "C:\Program Files (x86)\Microchip\xc8\v2.00\pic\include\pic16f887.h"
   346                           SSPSTAT equ 094h ;# 
   347  0094                     # 2348 "C:\Program Files (x86)\Microchip\xc8\v2.00\pic\include\pic16f887.h"
   348                           WPUB equ 095h ;# 
   349  0095                     # 2418 "C:\Program Files (x86)\Microchip\xc8\v2.00\pic\include\pic16f887.h"
   350                           IOCB equ 096h ;# 
   351  0096                     # 2488 "C:\Program Files (x86)\Microchip\xc8\v2.00\pic\include\pic16f887.h"
   352                           VRCON equ 097h ;# 
   353  0097                     # 2558 "C:\Program Files (x86)\Microchip\xc8\v2.00\pic\include\pic16f887.h"
   354                           TXSTA equ 098h ;# 
   355  0098                     # 2644 "C:\Program Files (x86)\Microchip\xc8\v2.00\pic\include\pic16f887.h"
   356                           SPBRG equ 099h ;# 
   357  0099                     # 2706 "C:\Program Files (x86)\Microchip\xc8\v2.00\pic\include\pic16f887.h"
   358                           SPBRGH equ 09Ah ;# 
   359  009A                     # 2776 "C:\Program Files (x86)\Microchip\xc8\v2.00\pic\include\pic16f887.h"
   360                           PWM1CON equ 09Bh ;# 
   361  009B                     # 2846 "C:\Program Files (x86)\Microchip\xc8\v2.00\pic\include\pic16f887.h"
   362                           ECCPAS equ 09Ch ;# 
   363  009C                     # 2928 "C:\Program Files (x86)\Microchip\xc8\v2.00\pic\include\pic16f887.h"
   364                           PSTRCON equ 09Dh ;# 
   365  009D                     # 2972 "C:\Program Files (x86)\Microchip\xc8\v2.00\pic\include\pic16f887.h"
   366                           ADRESL equ 09Eh ;# 
   367  009E                     # 2979 "C:\Program Files (x86)\Microchip\xc8\v2.00\pic\include\pic16f887.h"
   368                           ADCON1 equ 09Fh ;# 
   369  009F                     # 3013 "C:\Program Files (x86)\Microchip\xc8\v2.00\pic\include\pic16f887.h"
   370                           WDTCON equ 0105h ;# 
   371  0105                     # 3066 "C:\Program Files (x86)\Microchip\xc8\v2.00\pic\include\pic16f887.h"
   372                           CM1CON0 equ 0107h ;# 
   373  0107                     # 3131 "C:\Program Files (x86)\Microchip\xc8\v2.00\pic\include\pic16f887.h"
   374                           CM2CON0 equ 0108h ;# 
   375  0108                     # 3196 "C:\Program Files (x86)\Microchip\xc8\v2.00\pic\include\pic16f887.h"
   376                           CM2CON1 equ 0109h ;# 
   377  0109                     # 3247 "C:\Program Files (x86)\Microchip\xc8\v2.00\pic\include\pic16f887.h"
   378                           EEDATA equ 010Ch ;# 
   379  010C                     # 3252 "C:\Program Files (x86)\Microchip\xc8\v2.00\pic\include\pic16f887.h"
   380                           EEDAT equ 010Ch ;# 
   381  010C                     # 3259 "C:\Program Files (x86)\Microchip\xc8\v2.00\pic\include\pic16f887.h"
   382                           EEADR equ 010Dh ;# 
   383  010D                     # 3266 "C:\Program Files (x86)\Microchip\xc8\v2.00\pic\include\pic16f887.h"
   384                           EEDATH equ 010Eh ;# 
   385  010E                     # 3273 "C:\Program Files (x86)\Microchip\xc8\v2.00\pic\include\pic16f887.h"
   386                           EEADRH equ 010Fh ;# 
   387  010F                     # 3280 "C:\Program Files (x86)\Microchip\xc8\v2.00\pic\include\pic16f887.h"
   388                           SRCON equ 0185h ;# 
   389  0185                     # 3337 "C:\Program Files (x86)\Microchip\xc8\v2.00\pic\include\pic16f887.h"
   390                           BAUDCTL equ 0187h ;# 
   391  0187                     # 3389 "C:\Program Files (x86)\Microchip\xc8\v2.00\pic\include\pic16f887.h"
   392                           ANSEL equ 0188h ;# 
   393  0188                     # 3451 "C:\Program Files (x86)\Microchip\xc8\v2.00\pic\include\pic16f887.h"
   394                           ANSELH equ 0189h ;# 
   395  0189                     # 3501 "C:\Program Files (x86)\Microchip\xc8\v2.00\pic\include\pic16f887.h"
   396                           EECON1 equ 018Ch ;# 
   397  018C                     # 3546 "C:\Program Files (x86)\Microchip\xc8\v2.00\pic\include\pic16f887.h"
   398                           EECON2 equ 018Dh ;# 
   399  018D                     # 54 "C:\Program Files (x86)\Microchip\xc8\v2.00\pic\include\pic16f887.h"
   400                           INDF equ 00h ;# 
   401  0000                     # 61 "C:\Program Files (x86)\Microchip\xc8\v2.00\pic\include\pic16f887.h"
   402                           TMR0 equ 01h ;# 
   403  0001                     # 68 "C:\Program Files (x86)\Microchip\xc8\v2.00\pic\include\pic16f887.h"
   404                           PCL equ 02h ;# 
   405  0002                     # 75 "C:\Program Files (x86)\Microchip\xc8\v2.00\pic\include\pic16f887.h"
   406                           STATUS equ 03h ;# 
   407  0003                     # 161 "C:\Program Files (x86)\Microchip\xc8\v2.00\pic\include\pic16f887.h"
   408                           FSR equ 04h ;# 
   409  0004                     # 168 "C:\Program Files (x86)\Microchip\xc8\v2.00\pic\include\pic16f887.h"
   410                           PORTA equ 05h ;# 
   411  0005                     # 230 "C:\Program Files (x86)\Microchip\xc8\v2.00\pic\include\pic16f887.h"
   412                           PORTB equ 06h ;# 
   413  0006                     # 292 "C:\Program Files (x86)\Microchip\xc8\v2.00\pic\include\pic16f887.h"
   414                           PORTC equ 07h ;# 
   415  0007                     # 354 "C:\Program Files (x86)\Microchip\xc8\v2.00\pic\include\pic16f887.h"
   416                           PORTD equ 08h ;# 
   417  0008                     # 416 "C:\Program Files (x86)\Microchip\xc8\v2.00\pic\include\pic16f887.h"
   418                           PORTE equ 09h ;# 
   419  0009                     # 454 "C:\Program Files (x86)\Microchip\xc8\v2.00\pic\include\pic16f887.h"
   420                           PCLATH equ 0Ah ;# 
   421  000A                     # 461 "C:\Program Files (x86)\Microchip\xc8\v2.00\pic\include\pic16f887.h"
   422                           INTCON equ 0Bh ;# 
   423  000B                     # 539 "C:\Program Files (x86)\Microchip\xc8\v2.00\pic\include\pic16f887.h"
   424                           PIR1 equ 0Ch ;# 
   425  000C                     # 595 "C:\Program Files (x86)\Microchip\xc8\v2.00\pic\include\pic16f887.h"
   426                           PIR2 equ 0Dh ;# 
   427  000D                     # 652 "C:\Program Files (x86)\Microchip\xc8\v2.00\pic\include\pic16f887.h"
   428                           TMR1 equ 0Eh ;# 
   429  000E                     # 659 "C:\Program Files (x86)\Microchip\xc8\v2.00\pic\include\pic16f887.h"
   430                           TMR1L equ 0Eh ;# 
   431  000E                     # 666 "C:\Program Files (x86)\Microchip\xc8\v2.00\pic\include\pic16f887.h"
   432                           TMR1H equ 0Fh ;# 
   433  000F                     # 673 "C:\Program Files (x86)\Microchip\xc8\v2.00\pic\include\pic16f887.h"
   434                           T1CON equ 010h ;# 
   435  0010                     # 767 "C:\Program Files (x86)\Microchip\xc8\v2.00\pic\include\pic16f887.h"
   436                           TMR2 equ 011h ;# 
   437  0011                     # 774 "C:\Program Files (x86)\Microchip\xc8\v2.00\pic\include\pic16f887.h"
   438                           T2CON equ 012h ;# 
   439  0012                     # 845 "C:\Program Files (x86)\Microchip\xc8\v2.00\pic\include\pic16f887.h"
   440                           SSPBUF equ 013h ;# 
   441  0013                     # 852 "C:\Program Files (x86)\Microchip\xc8\v2.00\pic\include\pic16f887.h"
   442                           SSPCON equ 014h ;# 
   443  0014                     # 922 "C:\Program Files (x86)\Microchip\xc8\v2.00\pic\include\pic16f887.h"
   444                           CCPR1 equ 015h ;# 
   445  0015                     # 929 "C:\Program Files (x86)\Microchip\xc8\v2.00\pic\include\pic16f887.h"
   446                           CCPR1L equ 015h ;# 
   447  0015                     # 936 "C:\Program Files (x86)\Microchip\xc8\v2.00\pic\include\pic16f887.h"
   448                           CCPR1H equ 016h ;# 
   449  0016                     # 943 "C:\Program Files (x86)\Microchip\xc8\v2.00\pic\include\pic16f887.h"
   450                           CCP1CON equ 017h ;# 
   451  0017                     # 1040 "C:\Program Files (x86)\Microchip\xc8\v2.00\pic\include\pic16f887.h"
   452                           RCSTA equ 018h ;# 
   453  0018                     # 1135 "C:\Program Files (x86)\Microchip\xc8\v2.00\pic\include\pic16f887.h"
   454                           TXREG equ 019h ;# 
   455  0019                     # 1142 "C:\Program Files (x86)\Microchip\xc8\v2.00\pic\include\pic16f887.h"
   456                           RCREG equ 01Ah ;# 
   457  001A                     # 1149 "C:\Program Files (x86)\Microchip\xc8\v2.00\pic\include\pic16f887.h"
   458                           CCPR2 equ 01Bh ;# 
   459  001B                     # 1156 "C:\Program Files (x86)\Microchip\xc8\v2.00\pic\include\pic16f887.h"
   460                           CCPR2L equ 01Bh ;# 
   461  001B                     # 1163 "C:\Program Files (x86)\Microchip\xc8\v2.00\pic\include\pic16f887.h"
   462                           CCPR2H equ 01Ch ;# 
   463  001C                     # 1170 "C:\Program Files (x86)\Microchip\xc8\v2.00\pic\include\pic16f887.h"
   464                           CCP2CON equ 01Dh ;# 
   465  001D                     # 1240 "C:\Program Files (x86)\Microchip\xc8\v2.00\pic\include\pic16f887.h"
   466                           ADRESH equ 01Eh ;# 
   467  001E                     # 1247 "C:\Program Files (x86)\Microchip\xc8\v2.00\pic\include\pic16f887.h"
   468                           ADCON0 equ 01Fh ;# 
   469  001F                     # 1348 "C:\Program Files (x86)\Microchip\xc8\v2.00\pic\include\pic16f887.h"
   470                           OPTION_REG equ 081h ;# 
   471  0081                     # 1418 "C:\Program Files (x86)\Microchip\xc8\v2.00\pic\include\pic16f887.h"
   472                           TRISA equ 085h ;# 
   473  0085                     # 1480 "C:\Program Files (x86)\Microchip\xc8\v2.00\pic\include\pic16f887.h"
   474                           TRISB equ 086h ;# 
   475  0086                     # 1542 "C:\Program Files (x86)\Microchip\xc8\v2.00\pic\include\pic16f887.h"
   476                           TRISC equ 087h ;# 
   477  0087                     # 1604 "C:\Program Files (x86)\Microchip\xc8\v2.00\pic\include\pic16f887.h"
   478                           TRISD equ 088h ;# 
   479  0088                     # 1666 "C:\Program Files (x86)\Microchip\xc8\v2.00\pic\include\pic16f887.h"
   480                           TRISE equ 089h ;# 
   481  0089                     # 1704 "C:\Program Files (x86)\Microchip\xc8\v2.00\pic\include\pic16f887.h"
   482                           PIE1 equ 08Ch ;# 
   483  008C                     # 1760 "C:\Program Files (x86)\Microchip\xc8\v2.00\pic\include\pic16f887.h"
   484                           PIE2 equ 08Dh ;# 
   485  008D                     # 1817 "C:\Program Files (x86)\Microchip\xc8\v2.00\pic\include\pic16f887.h"
   486                           PCON equ 08Eh ;# 
   487  008E                     # 1864 "C:\Program Files (x86)\Microchip\xc8\v2.00\pic\include\pic16f887.h"
   488                           OSCCON equ 08Fh ;# 
   489  008F                     # 1929 "C:\Program Files (x86)\Microchip\xc8\v2.00\pic\include\pic16f887.h"
   490                           OSCTUNE equ 090h ;# 
   491  0090                     # 1981 "C:\Program Files (x86)\Microchip\xc8\v2.00\pic\include\pic16f887.h"
   492                           SSPCON2 equ 091h ;# 
   493  0091                     # 2043 "C:\Program Files (x86)\Microchip\xc8\v2.00\pic\include\pic16f887.h"
   494                           PR2 equ 092h ;# 
   495  0092                     # 2050 "C:\Program Files (x86)\Microchip\xc8\v2.00\pic\include\pic16f887.h"
   496                           SSPADD equ 093h ;# 
   497  0093                     # 2057 "C:\Program Files (x86)\Microchip\xc8\v2.00\pic\include\pic16f887.h"
   498                           SSPMSK equ 093h ;# 
   499  0093                     # 2062 "C:\Program Files (x86)\Microchip\xc8\v2.00\pic\include\pic16f887.h"
   500                           MSK equ 093h ;# 
   501  0093                     # 2179 "C:\Program Files (x86)\Microchip\xc8\v2.00\pic\include\pic16f887.h"
   502                           SSPSTAT equ 094h ;# 
   503  0094                     # 2348 "C:\Program Files (x86)\Microchip\xc8\v2.00\pic\include\pic16f887.h"
   504                           WPUB equ 095h ;# 
   505  0095                     # 2418 "C:\Program Files (x86)\Microchip\xc8\v2.00\pic\include\pic16f887.h"
   506                           IOCB equ 096h ;# 
   507  0096                     # 2488 "C:\Program Files (x86)\Microchip\xc8\v2.00\pic\include\pic16f887.h"
   508                           VRCON equ 097h ;# 
   509  0097                     # 2558 "C:\Program Files (x86)\Microchip\xc8\v2.00\pic\include\pic16f887.h"
   510                           TXSTA equ 098h ;# 
   511  0098                     # 2644 "C:\Program Files (x86)\Microchip\xc8\v2.00\pic\include\pic16f887.h"
   512                           SPBRG equ 099h ;# 
   513  0099                     # 2706 "C:\Program Files (x86)\Microchip\xc8\v2.00\pic\include\pic16f887.h"
   514                           SPBRGH equ 09Ah ;# 
   515  009A                     # 2776 "C:\Program Files (x86)\Microchip\xc8\v2.00\pic\include\pic16f887.h"
   516                           PWM1CON equ 09Bh ;# 
   517  009B                     # 2846 "C:\Program Files (x86)\Microchip\xc8\v2.00\pic\include\pic16f887.h"
   518                           ECCPAS equ 09Ch ;# 
   519  009C                     # 2928 "C:\Program Files (x86)\Microchip\xc8\v2.00\pic\include\pic16f887.h"
   520                           PSTRCON equ 09Dh ;# 
   521  009D                     # 2972 "C:\Program Files (x86)\Microchip\xc8\v2.00\pic\include\pic16f887.h"
   522                           ADRESL equ 09Eh ;# 
   523  009E                     # 2979 "C:\Program Files (x86)\Microchip\xc8\v2.00\pic\include\pic16f887.h"
   524                           ADCON1 equ 09Fh ;# 
   525  009F                     # 3013 "C:\Program Files (x86)\Microchip\xc8\v2.00\pic\include\pic16f887.h"
   526                           WDTCON equ 0105h ;# 
   527  0105                     # 3066 "C:\Program Files (x86)\Microchip\xc8\v2.00\pic\include\pic16f887.h"
   528                           CM1CON0 equ 0107h ;# 
   529  0107                     # 3131 "C:\Program Files (x86)\Microchip\xc8\v2.00\pic\include\pic16f887.h"
   530                           CM2CON0 equ 0108h ;# 
   531  0108                     # 3196 "C:\Program Files (x86)\Microchip\xc8\v2.00\pic\include\pic16f887.h"
   532                           CM2CON1 equ 0109h ;# 
   533  0109                     # 3247 "C:\Program Files (x86)\Microchip\xc8\v2.00\pic\include\pic16f887.h"
   534                           EEDATA equ 010Ch ;# 
   535  010C                     # 3252 "C:\Program Files (x86)\Microchip\xc8\v2.00\pic\include\pic16f887.h"
   536                           EEDAT equ 010Ch ;# 
   537  010C                     # 3259 "C:\Program Files (x86)\Microchip\xc8\v2.00\pic\include\pic16f887.h"
   538                           EEADR equ 010Dh ;# 
   539  010D                     # 3266 "C:\Program Files (x86)\Microchip\xc8\v2.00\pic\include\pic16f887.h"
   540                           EEDATH equ 010Eh ;# 
   541  010E                     # 3273 "C:\Program Files (x86)\Microchip\xc8\v2.00\pic\include\pic16f887.h"
   542                           EEADRH equ 010Fh ;# 
   543  010F                     # 3280 "C:\Program Files (x86)\Microchip\xc8\v2.00\pic\include\pic16f887.h"
   544                           SRCON equ 0185h ;# 
   545  0185                     # 3337 "C:\Program Files (x86)\Microchip\xc8\v2.00\pic\include\pic16f887.h"
   546                           BAUDCTL equ 0187h ;# 
   547  0187                     # 3389 "C:\Program Files (x86)\Microchip\xc8\v2.00\pic\include\pic16f887.h"
   548                           ANSEL equ 0188h ;# 
   549  0188                     # 3451 "C:\Program Files (x86)\Microchip\xc8\v2.00\pic\include\pic16f887.h"
   550                           ANSELH equ 0189h ;# 
   551  0189                     # 3501 "C:\Program Files (x86)\Microchip\xc8\v2.00\pic\include\pic16f887.h"
   552                           EECON1 equ 018Ch ;# 
   553  018C                     # 3546 "C:\Program Files (x86)\Microchip\xc8\v2.00\pic\include\pic16f887.h"
   554                           EECON2 equ 018Dh ;# 
   555  018D                     # 54 "C:\Program Files (x86)\Microchip\xc8\v2.00\pic\include\pic16f887.h"
   556                           INDF equ 00h ;# 
   557  0000                     # 61 "C:\Program Files (x86)\Microchip\xc8\v2.00\pic\include\pic16f887.h"
   558                           TMR0 equ 01h ;# 
   559  0001                     # 68 "C:\Program Files (x86)\Microchip\xc8\v2.00\pic\include\pic16f887.h"
   560                           PCL equ 02h ;# 
   561  0002                     # 75 "C:\Program Files (x86)\Microchip\xc8\v2.00\pic\include\pic16f887.h"
   562                           STATUS equ 03h ;# 
   563  0003                     # 161 "C:\Program Files (x86)\Microchip\xc8\v2.00\pic\include\pic16f887.h"
   564                           FSR equ 04h ;# 
   565  0004                     # 168 "C:\Program Files (x86)\Microchip\xc8\v2.00\pic\include\pic16f887.h"
   566                           PORTA equ 05h ;# 
   567  0005                     # 230 "C:\Program Files (x86)\Microchip\xc8\v2.00\pic\include\pic16f887.h"
   568                           PORTB equ 06h ;# 
   569  0006                     # 292 "C:\Program Files (x86)\Microchip\xc8\v2.00\pic\include\pic16f887.h"
   570                           PORTC equ 07h ;# 
   571  0007                     # 354 "C:\Program Files (x86)\Microchip\xc8\v2.00\pic\include\pic16f887.h"
   572                           PORTD equ 08h ;# 
   573  0008                     # 416 "C:\Program Files (x86)\Microchip\xc8\v2.00\pic\include\pic16f887.h"
   574                           PORTE equ 09h ;# 
   575  0009                     # 454 "C:\Program Files (x86)\Microchip\xc8\v2.00\pic\include\pic16f887.h"
   576                           PCLATH equ 0Ah ;# 
   577  000A                     # 461 "C:\Program Files (x86)\Microchip\xc8\v2.00\pic\include\pic16f887.h"
   578                           INTCON equ 0Bh ;# 
   579  000B                     # 539 "C:\Program Files (x86)\Microchip\xc8\v2.00\pic\include\pic16f887.h"
   580                           PIR1 equ 0Ch ;# 
   581  000C                     # 595 "C:\Program Files (x86)\Microchip\xc8\v2.00\pic\include\pic16f887.h"
   582                           PIR2 equ 0Dh ;# 
   583  000D                     # 652 "C:\Program Files (x86)\Microchip\xc8\v2.00\pic\include\pic16f887.h"
   584                           TMR1 equ 0Eh ;# 
   585  000E                     # 659 "C:\Program Files (x86)\Microchip\xc8\v2.00\pic\include\pic16f887.h"
   586                           TMR1L equ 0Eh ;# 
   587  000E                     # 666 "C:\Program Files (x86)\Microchip\xc8\v2.00\pic\include\pic16f887.h"
   588                           TMR1H equ 0Fh ;# 
   589  000F                     # 673 "C:\Program Files (x86)\Microchip\xc8\v2.00\pic\include\pic16f887.h"
   590                           T1CON equ 010h ;# 
   591  0010                     # 767 "C:\Program Files (x86)\Microchip\xc8\v2.00\pic\include\pic16f887.h"
   592                           TMR2 equ 011h ;# 
   593  0011                     # 774 "C:\Program Files (x86)\Microchip\xc8\v2.00\pic\include\pic16f887.h"
   594                           T2CON equ 012h ;# 
   595  0012                     # 845 "C:\Program Files (x86)\Microchip\xc8\v2.00\pic\include\pic16f887.h"
   596                           SSPBUF equ 013h ;# 
   597  0013                     # 852 "C:\Program Files (x86)\Microchip\xc8\v2.00\pic\include\pic16f887.h"
   598                           SSPCON equ 014h ;# 
   599  0014                     # 922 "C:\Program Files (x86)\Microchip\xc8\v2.00\pic\include\pic16f887.h"
   600                           CCPR1 equ 015h ;# 
   601  0015                     # 929 "C:\Program Files (x86)\Microchip\xc8\v2.00\pic\include\pic16f887.h"
   602                           CCPR1L equ 015h ;# 
   603  0015                     # 936 "C:\Program Files (x86)\Microchip\xc8\v2.00\pic\include\pic16f887.h"
   604                           CCPR1H equ 016h ;# 
   605  0016                     # 943 "C:\Program Files (x86)\Microchip\xc8\v2.00\pic\include\pic16f887.h"
   606                           CCP1CON equ 017h ;# 
   607  0017                     # 1040 "C:\Program Files (x86)\Microchip\xc8\v2.00\pic\include\pic16f887.h"
   608                           RCSTA equ 018h ;# 
   609  0018                     # 1135 "C:\Program Files (x86)\Microchip\xc8\v2.00\pic\include\pic16f887.h"
   610                           TXREG equ 019h ;# 
   611  0019                     # 1142 "C:\Program Files (x86)\Microchip\xc8\v2.00\pic\include\pic16f887.h"
   612                           RCREG equ 01Ah ;# 
   613  001A                     # 1149 "C:\Program Files (x86)\Microchip\xc8\v2.00\pic\include\pic16f887.h"
   614                           CCPR2 equ 01Bh ;# 
   615  001B                     # 1156 "C:\Program Files (x86)\Microchip\xc8\v2.00\pic\include\pic16f887.h"
   616                           CCPR2L equ 01Bh ;# 
   617  001B                     # 1163 "C:\Program Files (x86)\Microchip\xc8\v2.00\pic\include\pic16f887.h"
   618                           CCPR2H equ 01Ch ;# 
   619  001C                     # 1170 "C:\Program Files (x86)\Microchip\xc8\v2.00\pic\include\pic16f887.h"
   620                           CCP2CON equ 01Dh ;# 
   621  001D                     # 1240 "C:\Program Files (x86)\Microchip\xc8\v2.00\pic\include\pic16f887.h"
   622                           ADRESH equ 01Eh ;# 
   623  001E                     # 1247 "C:\Program Files (x86)\Microchip\xc8\v2.00\pic\include\pic16f887.h"
   624                           ADCON0 equ 01Fh ;# 
   625  001F                     # 1348 "C:\Program Files (x86)\Microchip\xc8\v2.00\pic\include\pic16f887.h"
   626                           OPTION_REG equ 081h ;# 
   627  0081                     # 1418 "C:\Program Files (x86)\Microchip\xc8\v2.00\pic\include\pic16f887.h"
   628                           TRISA equ 085h ;# 
   629  0085                     # 1480 "C:\Program Files (x86)\Microchip\xc8\v2.00\pic\include\pic16f887.h"
   630                           TRISB equ 086h ;# 
   631  0086                     # 1542 "C:\Program Files (x86)\Microchip\xc8\v2.00\pic\include\pic16f887.h"
   632                           TRISC equ 087h ;# 
   633  0087                     # 1604 "C:\Program Files (x86)\Microchip\xc8\v2.00\pic\include\pic16f887.h"
   634                           TRISD equ 088h ;# 
   635  0088                     # 1666 "C:\Program Files (x86)\Microchip\xc8\v2.00\pic\include\pic16f887.h"
   636                           TRISE equ 089h ;# 
   637  0089                     # 1704 "C:\Program Files (x86)\Microchip\xc8\v2.00\pic\include\pic16f887.h"
   638                           PIE1 equ 08Ch ;# 
   639  008C                     # 1760 "C:\Program Files (x86)\Microchip\xc8\v2.00\pic\include\pic16f887.h"
   640                           PIE2 equ 08Dh ;# 
   641  008D                     # 1817 "C:\Program Files (x86)\Microchip\xc8\v2.00\pic\include\pic16f887.h"
   642                           PCON equ 08Eh ;# 
   643  008E                     # 1864 "C:\Program Files (x86)\Microchip\xc8\v2.00\pic\include\pic16f887.h"
   644                           OSCCON equ 08Fh ;# 
   645  008F                     # 1929 "C:\Program Files (x86)\Microchip\xc8\v2.00\pic\include\pic16f887.h"
   646                           OSCTUNE equ 090h ;# 
   647  0090                     # 1981 "C:\Program Files (x86)\Microchip\xc8\v2.00\pic\include\pic16f887.h"
   648                           SSPCON2 equ 091h ;# 
   649  0091                     # 2043 "C:\Program Files (x86)\Microchip\xc8\v2.00\pic\include\pic16f887.h"
   650                           PR2 equ 092h ;# 
   651  0092                     # 2050 "C:\Program Files (x86)\Microchip\xc8\v2.00\pic\include\pic16f887.h"
   652                           SSPADD equ 093h ;# 
   653  0093                     # 2057 "C:\Program Files (x86)\Microchip\xc8\v2.00\pic\include\pic16f887.h"
   654                           SSPMSK equ 093h ;# 
   655  0093                     # 2062 "C:\Program Files (x86)\Microchip\xc8\v2.00\pic\include\pic16f887.h"
   656                           MSK equ 093h ;# 
   657  0093                     # 2179 "C:\Program Files (x86)\Microchip\xc8\v2.00\pic\include\pic16f887.h"
   658                           SSPSTAT equ 094h ;# 
   659  0094                     # 2348 "C:\Program Files (x86)\Microchip\xc8\v2.00\pic\include\pic16f887.h"
   660                           WPUB equ 095h ;# 
   661  0095                     # 2418 "C:\Program Files (x86)\Microchip\xc8\v2.00\pic\include\pic16f887.h"
   662                           IOCB equ 096h ;# 
   663  0096                     # 2488 "C:\Program Files (x86)\Microchip\xc8\v2.00\pic\include\pic16f887.h"
   664                           VRCON equ 097h ;# 
   665  0097                     # 2558 "C:\Program Files (x86)\Microchip\xc8\v2.00\pic\include\pic16f887.h"
   666                           TXSTA equ 098h ;# 
   667  0098                     # 2644 "C:\Program Files (x86)\Microchip\xc8\v2.00\pic\include\pic16f887.h"
   668                           SPBRG equ 099h ;# 
   669  0099                     # 2706 "C:\Program Files (x86)\Microchip\xc8\v2.00\pic\include\pic16f887.h"
   670                           SPBRGH equ 09Ah ;# 
   671  009A                     # 2776 "C:\Program Files (x86)\Microchip\xc8\v2.00\pic\include\pic16f887.h"
   672                           PWM1CON equ 09Bh ;# 
   673  009B                     # 2846 "C:\Program Files (x86)\Microchip\xc8\v2.00\pic\include\pic16f887.h"
   674                           ECCPAS equ 09Ch ;# 
   675  009C                     # 2928 "C:\Program Files (x86)\Microchip\xc8\v2.00\pic\include\pic16f887.h"
   676                           PSTRCON equ 09Dh ;# 
   677  009D                     # 2972 "C:\Program Files (x86)\Microchip\xc8\v2.00\pic\include\pic16f887.h"
   678                           ADRESL equ 09Eh ;# 
   679  009E                     # 2979 "C:\Program Files (x86)\Microchip\xc8\v2.00\pic\include\pic16f887.h"
   680                           ADCON1 equ 09Fh ;# 
   681  009F                     # 3013 "C:\Program Files (x86)\Microchip\xc8\v2.00\pic\include\pic16f887.h"
   682                           WDTCON equ 0105h ;# 
   683  0105                     # 3066 "C:\Program Files (x86)\Microchip\xc8\v2.00\pic\include\pic16f887.h"
   684                           CM1CON0 equ 0107h ;# 
   685  0107                     # 3131 "C:\Program Files (x86)\Microchip\xc8\v2.00\pic\include\pic16f887.h"
   686                           CM2CON0 equ 0108h ;# 
   687  0108                     # 3196 "C:\Program Files (x86)\Microchip\xc8\v2.00\pic\include\pic16f887.h"
   688                           CM2CON1 equ 0109h ;# 
   689  0109                     # 3247 "C:\Program Files (x86)\Microchip\xc8\v2.00\pic\include\pic16f887.h"
   690                           EEDATA equ 010Ch ;# 
   691  010C                     # 3252 "C:\Program Files (x86)\Microchip\xc8\v2.00\pic\include\pic16f887.h"
   692                           EEDAT equ 010Ch ;# 
   693  010C                     # 3259 "C:\Program Files (x86)\Microchip\xc8\v2.00\pic\include\pic16f887.h"
   694                           EEADR equ 010Dh ;# 
   695  010D                     # 3266 "C:\Program Files (x86)\Microchip\xc8\v2.00\pic\include\pic16f887.h"
   696                           EEDATH equ 010Eh ;# 
   697  010E                     # 3273 "C:\Program Files (x86)\Microchip\xc8\v2.00\pic\include\pic16f887.h"
   698                           EEADRH equ 010Fh ;# 
   699  010F                     # 3280 "C:\Program Files (x86)\Microchip\xc8\v2.00\pic\include\pic16f887.h"
   700                           SRCON equ 0185h ;# 
   701  0185                     # 3337 "C:\Program Files (x86)\Microchip\xc8\v2.00\pic\include\pic16f887.h"
   702                           BAUDCTL equ 0187h ;# 
   703  0187                     # 3389 "C:\Program Files (x86)\Microchip\xc8\v2.00\pic\include\pic16f887.h"
   704                           ANSEL equ 0188h ;# 
   705  0188                     # 3451 "C:\Program Files (x86)\Microchip\xc8\v2.00\pic\include\pic16f887.h"
   706                           ANSELH equ 0189h ;# 
   707  0189                     # 3501 "C:\Program Files (x86)\Microchip\xc8\v2.00\pic\include\pic16f887.h"
   708                           EECON1 equ 018Ch ;# 
   709  018C                     # 3546 "C:\Program Files (x86)\Microchip\xc8\v2.00\pic\include\pic16f887.h"
   710                           EECON2 equ 018Dh ;# 
   711  018D                     # 54 "C:\Program Files (x86)\Microchip\xc8\v2.00\pic\include\pic16f887.h"
   712                           INDF equ 00h ;# 
   713  0000                     # 61 "C:\Program Files (x86)\Microchip\xc8\v2.00\pic\include\pic16f887.h"
   714                           TMR0 equ 01h ;# 
   715  0001                     # 68 "C:\Program Files (x86)\Microchip\xc8\v2.00\pic\include\pic16f887.h"
   716                           PCL equ 02h ;# 
   717  0002                     # 75 "C:\Program Files (x86)\Microchip\xc8\v2.00\pic\include\pic16f887.h"
   718                           STATUS equ 03h ;# 
   719  0003                     # 161 "C:\Program Files (x86)\Microchip\xc8\v2.00\pic\include\pic16f887.h"
   720                           FSR equ 04h ;# 
   721  0004                     # 168 "C:\Program Files (x86)\Microchip\xc8\v2.00\pic\include\pic16f887.h"
   722                           PORTA equ 05h ;# 
   723  0005                     # 230 "C:\Program Files (x86)\Microchip\xc8\v2.00\pic\include\pic16f887.h"
   724                           PORTB equ 06h ;# 
   725  0006                     # 292 "C:\Program Files (x86)\Microchip\xc8\v2.00\pic\include\pic16f887.h"
   726                           PORTC equ 07h ;# 
   727  0007                     # 354 "C:\Program Files (x86)\Microchip\xc8\v2.00\pic\include\pic16f887.h"
   728                           PORTD equ 08h ;# 
   729  0008                     # 416 "C:\Program Files (x86)\Microchip\xc8\v2.00\pic\include\pic16f887.h"
   730                           PORTE equ 09h ;# 
   731  0009                     # 454 "C:\Program Files (x86)\Microchip\xc8\v2.00\pic\include\pic16f887.h"
   732                           PCLATH equ 0Ah ;# 
   733  000A                     # 461 "C:\Program Files (x86)\Microchip\xc8\v2.00\pic\include\pic16f887.h"
   734                           INTCON equ 0Bh ;# 
   735  000B                     # 539 "C:\Program Files (x86)\Microchip\xc8\v2.00\pic\include\pic16f887.h"
   736                           PIR1 equ 0Ch ;# 
   737  000C                     # 595 "C:\Program Files (x86)\Microchip\xc8\v2.00\pic\include\pic16f887.h"
   738                           PIR2 equ 0Dh ;# 
   739  000D                     # 652 "C:\Program Files (x86)\Microchip\xc8\v2.00\pic\include\pic16f887.h"
   740                           TMR1 equ 0Eh ;# 
   741  000E                     # 659 "C:\Program Files (x86)\Microchip\xc8\v2.00\pic\include\pic16f887.h"
   742                           TMR1L equ 0Eh ;# 
   743  000E                     # 666 "C:\Program Files (x86)\Microchip\xc8\v2.00\pic\include\pic16f887.h"
   744                           TMR1H equ 0Fh ;# 
   745  000F                     # 673 "C:\Program Files (x86)\Microchip\xc8\v2.00\pic\include\pic16f887.h"
   746                           T1CON equ 010h ;# 
   747  0010                     # 767 "C:\Program Files (x86)\Microchip\xc8\v2.00\pic\include\pic16f887.h"
   748                           TMR2 equ 011h ;# 
   749  0011                     # 774 "C:\Program Files (x86)\Microchip\xc8\v2.00\pic\include\pic16f887.h"
   750                           T2CON equ 012h ;# 
   751  0012                     # 845 "C:\Program Files (x86)\Microchip\xc8\v2.00\pic\include\pic16f887.h"
   752                           SSPBUF equ 013h ;# 
   753  0013                     # 852 "C:\Program Files (x86)\Microchip\xc8\v2.00\pic\include\pic16f887.h"
   754                           SSPCON equ 014h ;# 
   755  0014                     # 922 "C:\Program Files (x86)\Microchip\xc8\v2.00\pic\include\pic16f887.h"
   756                           CCPR1 equ 015h ;# 
   757  0015                     # 929 "C:\Program Files (x86)\Microchip\xc8\v2.00\pic\include\pic16f887.h"
   758                           CCPR1L equ 015h ;# 
   759  0015                     # 936 "C:\Program Files (x86)\Microchip\xc8\v2.00\pic\include\pic16f887.h"
   760                           CCPR1H equ 016h ;# 
   761  0016                     # 943 "C:\Program Files (x86)\Microchip\xc8\v2.00\pic\include\pic16f887.h"
   762                           CCP1CON equ 017h ;# 
   763  0017                     # 1040 "C:\Program Files (x86)\Microchip\xc8\v2.00\pic\include\pic16f887.h"
   764                           RCSTA equ 018h ;# 
   765  0018                     # 1135 "C:\Program Files (x86)\Microchip\xc8\v2.00\pic\include\pic16f887.h"
   766                           TXREG equ 019h ;# 
   767  0019                     # 1142 "C:\Program Files (x86)\Microchip\xc8\v2.00\pic\include\pic16f887.h"
   768                           RCREG equ 01Ah ;# 
   769  001A                     # 1149 "C:\Program Files (x86)\Microchip\xc8\v2.00\pic\include\pic16f887.h"
   770                           CCPR2 equ 01Bh ;# 
   771  001B                     # 1156 "C:\Program Files (x86)\Microchip\xc8\v2.00\pic\include\pic16f887.h"
   772                           CCPR2L equ 01Bh ;# 
   773  001B                     # 1163 "C:\Program Files (x86)\Microchip\xc8\v2.00\pic\include\pic16f887.h"
   774                           CCPR2H equ 01Ch ;# 
   775  001C                     # 1170 "C:\Program Files (x86)\Microchip\xc8\v2.00\pic\include\pic16f887.h"
   776                           CCP2CON equ 01Dh ;# 
   777  001D                     # 1240 "C:\Program Files (x86)\Microchip\xc8\v2.00\pic\include\pic16f887.h"
   778                           ADRESH equ 01Eh ;# 
   779  001E                     # 1247 "C:\Program Files (x86)\Microchip\xc8\v2.00\pic\include\pic16f887.h"
   780                           ADCON0 equ 01Fh ;# 
   781  001F                     # 1348 "C:\Program Files (x86)\Microchip\xc8\v2.00\pic\include\pic16f887.h"
   782                           OPTION_REG equ 081h ;# 
   783  0081                     # 1418 "C:\Program Files (x86)\Microchip\xc8\v2.00\pic\include\pic16f887.h"
   784                           TRISA equ 085h ;# 
   785  0085                     # 1480 "C:\Program Files (x86)\Microchip\xc8\v2.00\pic\include\pic16f887.h"
   786                           TRISB equ 086h ;# 
   787  0086                     # 1542 "C:\Program Files (x86)\Microchip\xc8\v2.00\pic\include\pic16f887.h"
   788                           TRISC equ 087h ;# 
   789  0087                     # 1604 "C:\Program Files (x86)\Microchip\xc8\v2.00\pic\include\pic16f887.h"
   790                           TRISD equ 088h ;# 
   791  0088                     # 1666 "C:\Program Files (x86)\Microchip\xc8\v2.00\pic\include\pic16f887.h"
   792                           TRISE equ 089h ;# 
   793  0089                     # 1704 "C:\Program Files (x86)\Microchip\xc8\v2.00\pic\include\pic16f887.h"
   794                           PIE1 equ 08Ch ;# 
   795  008C                     # 1760 "C:\Program Files (x86)\Microchip\xc8\v2.00\pic\include\pic16f887.h"
   796                           PIE2 equ 08Dh ;# 
   797  008D                     # 1817 "C:\Program Files (x86)\Microchip\xc8\v2.00\pic\include\pic16f887.h"
   798                           PCON equ 08Eh ;# 
   799  008E                     # 1864 "C:\Program Files (x86)\Microchip\xc8\v2.00\pic\include\pic16f887.h"
   800                           OSCCON equ 08Fh ;# 
   801  008F                     # 1929 "C:\Program Files (x86)\Microchip\xc8\v2.00\pic\include\pic16f887.h"
   802                           OSCTUNE equ 090h ;# 
   803  0090                     # 1981 "C:\Program Files (x86)\Microchip\xc8\v2.00\pic\include\pic16f887.h"
   804                           SSPCON2 equ 091h ;# 
   805  0091                     # 2043 "C:\Program Files (x86)\Microchip\xc8\v2.00\pic\include\pic16f887.h"
   806                           PR2 equ 092h ;# 
   807  0092                     # 2050 "C:\Program Files (x86)\Microchip\xc8\v2.00\pic\include\pic16f887.h"
   808                           SSPADD equ 093h ;# 
   809  0093                     # 2057 "C:\Program Files (x86)\Microchip\xc8\v2.00\pic\include\pic16f887.h"
   810                           SSPMSK equ 093h ;# 
   811  0093                     # 2062 "C:\Program Files (x86)\Microchip\xc8\v2.00\pic\include\pic16f887.h"
   812                           MSK equ 093h ;# 
   813  0093                     # 2179 "C:\Program Files (x86)\Microchip\xc8\v2.00\pic\include\pic16f887.h"
   814                           SSPSTAT equ 094h ;# 
   815  0094                     # 2348 "C:\Program Files (x86)\Microchip\xc8\v2.00\pic\include\pic16f887.h"
   816                           WPUB equ 095h ;# 
   817  0095                     # 2418 "C:\Program Files (x86)\Microchip\xc8\v2.00\pic\include\pic16f887.h"
   818                           IOCB equ 096h ;# 
   819  0096                     # 2488 "C:\Program Files (x86)\Microchip\xc8\v2.00\pic\include\pic16f887.h"
   820                           VRCON equ 097h ;# 
   821  0097                     # 2558 "C:\Program Files (x86)\Microchip\xc8\v2.00\pic\include\pic16f887.h"
   822                           TXSTA equ 098h ;# 
   823  0098                     # 2644 "C:\Program Files (x86)\Microchip\xc8\v2.00\pic\include\pic16f887.h"
   824                           SPBRG equ 099h ;# 
   825  0099                     # 2706 "C:\Program Files (x86)\Microchip\xc8\v2.00\pic\include\pic16f887.h"
   826                           SPBRGH equ 09Ah ;# 
   827  009A                     # 2776 "C:\Program Files (x86)\Microchip\xc8\v2.00\pic\include\pic16f887.h"
   828                           PWM1CON equ 09Bh ;# 
   829  009B                     # 2846 "C:\Program Files (x86)\Microchip\xc8\v2.00\pic\include\pic16f887.h"
   830                           ECCPAS equ 09Ch ;# 
   831  009C                     # 2928 "C:\Program Files (x86)\Microchip\xc8\v2.00\pic\include\pic16f887.h"
   832                           PSTRCON equ 09Dh ;# 
   833  009D                     # 2972 "C:\Program Files (x86)\Microchip\xc8\v2.00\pic\include\pic16f887.h"
   834                           ADRESL equ 09Eh ;# 
   835  009E                     # 2979 "C:\Program Files (x86)\Microchip\xc8\v2.00\pic\include\pic16f887.h"
   836                           ADCON1 equ 09Fh ;# 
   837  009F                     # 3013 "C:\Program Files (x86)\Microchip\xc8\v2.00\pic\include\pic16f887.h"
   838                           WDTCON equ 0105h ;# 
   839  0105                     # 3066 "C:\Program Files (x86)\Microchip\xc8\v2.00\pic\include\pic16f887.h"
   840                           CM1CON0 equ 0107h ;# 
   841  0107                     # 3131 "C:\Program Files (x86)\Microchip\xc8\v2.00\pic\include\pic16f887.h"
   842                           CM2CON0 equ 0108h ;# 
   843  0108                     # 3196 "C:\Program Files (x86)\Microchip\xc8\v2.00\pic\include\pic16f887.h"
   844                           CM2CON1 equ 0109h ;# 
   845  0109                     # 3247 "C:\Program Files (x86)\Microchip\xc8\v2.00\pic\include\pic16f887.h"
   846                           EEDATA equ 010Ch ;# 
   847  010C                     # 3252 "C:\Program Files (x86)\Microchip\xc8\v2.00\pic\include\pic16f887.h"
   848                           EEDAT equ 010Ch ;# 
   849  010C                     # 3259 "C:\Program Files (x86)\Microchip\xc8\v2.00\pic\include\pic16f887.h"
   850                           EEADR equ 010Dh ;# 
   851  010D                     # 3266 "C:\Program Files (x86)\Microchip\xc8\v2.00\pic\include\pic16f887.h"
   852                           EEDATH equ 010Eh ;# 
   853  010E                     # 3273 "C:\Program Files (x86)\Microchip\xc8\v2.00\pic\include\pic16f887.h"
   854                           EEADRH equ 010Fh ;# 
   855  010F                     # 3280 "C:\Program Files (x86)\Microchip\xc8\v2.00\pic\include\pic16f887.h"
   856                           SRCON equ 0185h ;# 
   857  0185                     # 3337 "C:\Program Files (x86)\Microchip\xc8\v2.00\pic\include\pic16f887.h"
   858                           BAUDCTL equ 0187h ;# 
   859  0187                     # 3389 "C:\Program Files (x86)\Microchip\xc8\v2.00\pic\include\pic16f887.h"
   860                           ANSEL equ 0188h ;# 
   861  0188                     # 3451 "C:\Program Files (x86)\Microchip\xc8\v2.00\pic\include\pic16f887.h"
   862                           ANSELH equ 0189h ;# 
   863  0189                     # 3501 "C:\Program Files (x86)\Microchip\xc8\v2.00\pic\include\pic16f887.h"
   864                           EECON1 equ 018Ch ;# 
   865  018C                     # 3546 "C:\Program Files (x86)\Microchip\xc8\v2.00\pic\include\pic16f887.h"
   866                           EECON2 equ 018Dh ;# 
   867  018D                     # 54 "C:\Program Files (x86)\Microchip\xc8\v2.00\pic\include\pic16f887.h"
   868                           INDF equ 00h ;# 
   869  0000                     # 61 "C:\Program Files (x86)\Microchip\xc8\v2.00\pic\include\pic16f887.h"
   870                           TMR0 equ 01h ;# 
   871  0001                     # 68 "C:\Program Files (x86)\Microchip\xc8\v2.00\pic\include\pic16f887.h"
   872                           PCL equ 02h ;# 
   873  0002                     # 75 "C:\Program Files (x86)\Microchip\xc8\v2.00\pic\include\pic16f887.h"
   874                           STATUS equ 03h ;# 
   875  0003                     # 161 "C:\Program Files (x86)\Microchip\xc8\v2.00\pic\include\pic16f887.h"
   876                           FSR equ 04h ;# 
   877  0004                     # 168 "C:\Program Files (x86)\Microchip\xc8\v2.00\pic\include\pic16f887.h"
   878                           PORTA equ 05h ;# 
   879  0005                     # 230 "C:\Program Files (x86)\Microchip\xc8\v2.00\pic\include\pic16f887.h"
   880                           PORTB equ 06h ;# 
   881  0006                     # 292 "C:\Program Files (x86)\Microchip\xc8\v2.00\pic\include\pic16f887.h"
   882                           PORTC equ 07h ;# 
   883  0007                     # 354 "C:\Program Files (x86)\Microchip\xc8\v2.00\pic\include\pic16f887.h"
   884                           PORTD equ 08h ;# 
   885  0008                     # 416 "C:\Program Files (x86)\Microchip\xc8\v2.00\pic\include\pic16f887.h"
   886                           PORTE equ 09h ;# 
   887  0009                     # 454 "C:\Program Files (x86)\Microchip\xc8\v2.00\pic\include\pic16f887.h"
   888                           PCLATH equ 0Ah ;# 
   889  000A                     # 461 "C:\Program Files (x86)\Microchip\xc8\v2.00\pic\include\pic16f887.h"
   890                           INTCON equ 0Bh ;# 
   891  000B                     # 539 "C:\Program Files (x86)\Microchip\xc8\v2.00\pic\include\pic16f887.h"
   892                           PIR1 equ 0Ch ;# 
   893  000C                     # 595 "C:\Program Files (x86)\Microchip\xc8\v2.00\pic\include\pic16f887.h"
   894                           PIR2 equ 0Dh ;# 
   895  000D                     # 652 "C:\Program Files (x86)\Microchip\xc8\v2.00\pic\include\pic16f887.h"
   896                           TMR1 equ 0Eh ;# 
   897  000E                     # 659 "C:\Program Files (x86)\Microchip\xc8\v2.00\pic\include\pic16f887.h"
   898                           TMR1L equ 0Eh ;# 
   899  000E                     # 666 "C:\Program Files (x86)\Microchip\xc8\v2.00\pic\include\pic16f887.h"
   900                           TMR1H equ 0Fh ;# 
   901  000F                     # 673 "C:\Program Files (x86)\Microchip\xc8\v2.00\pic\include\pic16f887.h"
   902                           T1CON equ 010h ;# 
   903  0010                     # 767 "C:\Program Files (x86)\Microchip\xc8\v2.00\pic\include\pic16f887.h"
   904                           TMR2 equ 011h ;# 
   905  0011                     # 774 "C:\Program Files (x86)\Microchip\xc8\v2.00\pic\include\pic16f887.h"
   906                           T2CON equ 012h ;# 
   907  0012                     # 845 "C:\Program Files (x86)\Microchip\xc8\v2.00\pic\include\pic16f887.h"
   908                           SSPBUF equ 013h ;# 
   909  0013                     # 852 "C:\Program Files (x86)\Microchip\xc8\v2.00\pic\include\pic16f887.h"
   910                           SSPCON equ 014h ;# 
   911  0014                     # 922 "C:\Program Files (x86)\Microchip\xc8\v2.00\pic\include\pic16f887.h"
   912                           CCPR1 equ 015h ;# 
   913  0015                     # 929 "C:\Program Files (x86)\Microchip\xc8\v2.00\pic\include\pic16f887.h"
   914                           CCPR1L equ 015h ;# 
   915  0015                     # 936 "C:\Program Files (x86)\Microchip\xc8\v2.00\pic\include\pic16f887.h"
   916                           CCPR1H equ 016h ;# 
   917  0016                     # 943 "C:\Program Files (x86)\Microchip\xc8\v2.00\pic\include\pic16f887.h"
   918                           CCP1CON equ 017h ;# 
   919  0017                     # 1040 "C:\Program Files (x86)\Microchip\xc8\v2.00\pic\include\pic16f887.h"
   920                           RCSTA equ 018h ;# 
   921  0018                     # 1135 "C:\Program Files (x86)\Microchip\xc8\v2.00\pic\include\pic16f887.h"
   922                           TXREG equ 019h ;# 
   923  0019                     # 1142 "C:\Program Files (x86)\Microchip\xc8\v2.00\pic\include\pic16f887.h"
   924                           RCREG equ 01Ah ;# 
   925  001A                     # 1149 "C:\Program Files (x86)\Microchip\xc8\v2.00\pic\include\pic16f887.h"
   926                           CCPR2 equ 01Bh ;# 
   927  001B                     # 1156 "C:\Program Files (x86)\Microchip\xc8\v2.00\pic\include\pic16f887.h"
   928                           CCPR2L equ 01Bh ;# 
   929  001B                     # 1163 "C:\Program Files (x86)\Microchip\xc8\v2.00\pic\include\pic16f887.h"
   930                           CCPR2H equ 01Ch ;# 
   931  001C                     # 1170 "C:\Program Files (x86)\Microchip\xc8\v2.00\pic\include\pic16f887.h"
   932                           CCP2CON equ 01Dh ;# 
   933  001D                     # 1240 "C:\Program Files (x86)\Microchip\xc8\v2.00\pic\include\pic16f887.h"
   934                           ADRESH equ 01Eh ;# 
   935  001E                     # 1247 "C:\Program Files (x86)\Microchip\xc8\v2.00\pic\include\pic16f887.h"
   936                           ADCON0 equ 01Fh ;# 
   937  001F                     # 1348 "C:\Program Files (x86)\Microchip\xc8\v2.00\pic\include\pic16f887.h"
   938                           OPTION_REG equ 081h ;# 
   939  0081                     # 1418 "C:\Program Files (x86)\Microchip\xc8\v2.00\pic\include\pic16f887.h"
   940                           TRISA equ 085h ;# 
   941  0085                     # 1480 "C:\Program Files (x86)\Microchip\xc8\v2.00\pic\include\pic16f887.h"
   942                           TRISB equ 086h ;# 
   943  0086                     # 1542 "C:\Program Files (x86)\Microchip\xc8\v2.00\pic\include\pic16f887.h"
   944                           TRISC equ 087h ;# 
   945  0087                     # 1604 "C:\Program Files (x86)\Microchip\xc8\v2.00\pic\include\pic16f887.h"
   946                           TRISD equ 088h ;# 
   947  0088                     # 1666 "C:\Program Files (x86)\Microchip\xc8\v2.00\pic\include\pic16f887.h"
   948                           TRISE equ 089h ;# 
   949  0089                     # 1704 "C:\Program Files (x86)\Microchip\xc8\v2.00\pic\include\pic16f887.h"
   950                           PIE1 equ 08Ch ;# 
   951  008C                     # 1760 "C:\Program Files (x86)\Microchip\xc8\v2.00\pic\include\pic16f887.h"
   952                           PIE2 equ 08Dh ;# 
   953  008D                     # 1817 "C:\Program Files (x86)\Microchip\xc8\v2.00\pic\include\pic16f887.h"
   954                           PCON equ 08Eh ;# 
   955  008E                     # 1864 "C:\Program Files (x86)\Microchip\xc8\v2.00\pic\include\pic16f887.h"
   956                           OSCCON equ 08Fh ;# 
   957  008F                     # 1929 "C:\Program Files (x86)\Microchip\xc8\v2.00\pic\include\pic16f887.h"
   958                           OSCTUNE equ 090h ;# 
   959  0090                     # 1981 "C:\Program Files (x86)\Microchip\xc8\v2.00\pic\include\pic16f887.h"
   960                           SSPCON2 equ 091h ;# 
   961  0091                     # 2043 "C:\Program Files (x86)\Microchip\xc8\v2.00\pic\include\pic16f887.h"
   962                           PR2 equ 092h ;# 
   963  0092                     # 2050 "C:\Program Files (x86)\Microchip\xc8\v2.00\pic\include\pic16f887.h"
   964                           SSPADD equ 093h ;# 
   965  0093                     # 2057 "C:\Program Files (x86)\Microchip\xc8\v2.00\pic\include\pic16f887.h"
   966                           SSPMSK equ 093h ;# 
   967  0093                     # 2062 "C:\Program Files (x86)\Microchip\xc8\v2.00\pic\include\pic16f887.h"
   968                           MSK equ 093h ;# 
   969  0093                     # 2179 "C:\Program Files (x86)\Microchip\xc8\v2.00\pic\include\pic16f887.h"
   970                           SSPSTAT equ 094h ;# 
   971  0094                     # 2348 "C:\Program Files (x86)\Microchip\xc8\v2.00\pic\include\pic16f887.h"
   972                           WPUB equ 095h ;# 
   973  0095                     # 2418 "C:\Program Files (x86)\Microchip\xc8\v2.00\pic\include\pic16f887.h"
   974                           IOCB equ 096h ;# 
   975  0096                     # 2488 "C:\Program Files (x86)\Microchip\xc8\v2.00\pic\include\pic16f887.h"
   976                           VRCON equ 097h ;# 
   977  0097                     # 2558 "C:\Program Files (x86)\Microchip\xc8\v2.00\pic\include\pic16f887.h"
   978                           TXSTA equ 098h ;# 
   979  0098                     # 2644 "C:\Program Files (x86)\Microchip\xc8\v2.00\pic\include\pic16f887.h"
   980                           SPBRG equ 099h ;# 
   981  0099                     # 2706 "C:\Program Files (x86)\Microchip\xc8\v2.00\pic\include\pic16f887.h"
   982                           SPBRGH equ 09Ah ;# 
   983  009A                     # 2776 "C:\Program Files (x86)\Microchip\xc8\v2.00\pic\include\pic16f887.h"
   984                           PWM1CON equ 09Bh ;# 
   985  009B                     # 2846 "C:\Program Files (x86)\Microchip\xc8\v2.00\pic\include\pic16f887.h"
   986                           ECCPAS equ 09Ch ;# 
   987  009C                     # 2928 "C:\Program Files (x86)\Microchip\xc8\v2.00\pic\include\pic16f887.h"
   988                           PSTRCON equ 09Dh ;# 
   989  009D                     # 2972 "C:\Program Files (x86)\Microchip\xc8\v2.00\pic\include\pic16f887.h"
   990                           ADRESL equ 09Eh ;# 
   991  009E                     # 2979 "C:\Program Files (x86)\Microchip\xc8\v2.00\pic\include\pic16f887.h"
   992                           ADCON1 equ 09Fh ;# 
   993  009F                     # 3013 "C:\Program Files (x86)\Microchip\xc8\v2.00\pic\include\pic16f887.h"
   994                           WDTCON equ 0105h ;# 
   995  0105                     # 3066 "C:\Program Files (x86)\Microchip\xc8\v2.00\pic\include\pic16f887.h"
   996                           CM1CON0 equ 0107h ;# 
   997  0107                     # 3131 "C:\Program Files (x86)\Microchip\xc8\v2.00\pic\include\pic16f887.h"
   998                           CM2CON0 equ 0108h ;# 
   999  0108                     # 3196 "C:\Program Files (x86)\Microchip\xc8\v2.00\pic\include\pic16f887.h"
  1000                           CM2CON1 equ 0109h ;# 
  1001  0109                     # 3247 "C:\Program Files (x86)\Microchip\xc8\v2.00\pic\include\pic16f887.h"
  1002                           EEDATA equ 010Ch ;# 
  1003  010C                     # 3252 "C:\Program Files (x86)\Microchip\xc8\v2.00\pic\include\pic16f887.h"
  1004                           EEDAT equ 010Ch ;# 
  1005  010C                     # 3259 "C:\Program Files (x86)\Microchip\xc8\v2.00\pic\include\pic16f887.h"
  1006                           EEADR equ 010Dh ;# 
  1007  010D                     # 3266 "C:\Program Files (x86)\Microchip\xc8\v2.00\pic\include\pic16f887.h"
  1008                           EEDATH equ 010Eh ;# 
  1009  010E                     # 3273 "C:\Program Files (x86)\Microchip\xc8\v2.00\pic\include\pic16f887.h"
  1010                           EEADRH equ 010Fh ;# 
  1011  010F                     # 3280 "C:\Program Files (x86)\Microchip\xc8\v2.00\pic\include\pic16f887.h"
  1012                           SRCON equ 0185h ;# 
  1013  0185                     # 3337 "C:\Program Files (x86)\Microchip\xc8\v2.00\pic\include\pic16f887.h"
  1014                           BAUDCTL equ 0187h ;# 
  1015  0187                     # 3389 "C:\Program Files (x86)\Microchip\xc8\v2.00\pic\include\pic16f887.h"
  1016                           ANSEL equ 0188h ;# 
  1017  0188                     # 3451 "C:\Program Files (x86)\Microchip\xc8\v2.00\pic\include\pic16f887.h"
  1018                           ANSELH equ 0189h ;# 
  1019  0189                     # 3501 "C:\Program Files (x86)\Microchip\xc8\v2.00\pic\include\pic16f887.h"
  1020                           EECON1 equ 018Ch ;# 
  1021  018C                     # 3546 "C:\Program Files (x86)\Microchip\xc8\v2.00\pic\include\pic16f887.h"
  1022                           EECON2 equ 018Dh ;# 
  1023  018D                     # 54 "C:\Program Files (x86)\Microchip\xc8\v2.00\pic\include\pic16f887.h"
  1024                           INDF equ 00h ;# 
  1025  0000                     # 61 "C:\Program Files (x86)\Microchip\xc8\v2.00\pic\include\pic16f887.h"
  1026                           TMR0 equ 01h ;# 
  1027  0001                     # 68 "C:\Program Files (x86)\Microchip\xc8\v2.00\pic\include\pic16f887.h"
  1028                           PCL equ 02h ;# 
  1029  0002                     # 75 "C:\Program Files (x86)\Microchip\xc8\v2.00\pic\include\pic16f887.h"
  1030                           STATUS equ 03h ;# 
  1031  0003                     # 161 "C:\Program Files (x86)\Microchip\xc8\v2.00\pic\include\pic16f887.h"
  1032                           FSR equ 04h ;# 
  1033  0004                     # 168 "C:\Program Files (x86)\Microchip\xc8\v2.00\pic\include\pic16f887.h"
  1034                           PORTA equ 05h ;# 
  1035  0005                     # 230 "C:\Program Files (x86)\Microchip\xc8\v2.00\pic\include\pic16f887.h"
  1036                           PORTB equ 06h ;# 
  1037  0006                     # 292 "C:\Program Files (x86)\Microchip\xc8\v2.00\pic\include\pic16f887.h"
  1038                           PORTC equ 07h ;# 
  1039  0007                     # 354 "C:\Program Files (x86)\Microchip\xc8\v2.00\pic\include\pic16f887.h"
  1040                           PORTD equ 08h ;# 
  1041  0008                     # 416 "C:\Program Files (x86)\Microchip\xc8\v2.00\pic\include\pic16f887.h"
  1042                           PORTE equ 09h ;# 
  1043  0009                     # 454 "C:\Program Files (x86)\Microchip\xc8\v2.00\pic\include\pic16f887.h"
  1044                           PCLATH equ 0Ah ;# 
  1045  000A                     # 461 "C:\Program Files (x86)\Microchip\xc8\v2.00\pic\include\pic16f887.h"
  1046                           INTCON equ 0Bh ;# 
  1047  000B                     # 539 "C:\Program Files (x86)\Microchip\xc8\v2.00\pic\include\pic16f887.h"
  1048                           PIR1 equ 0Ch ;# 
  1049  000C                     # 595 "C:\Program Files (x86)\Microchip\xc8\v2.00\pic\include\pic16f887.h"
  1050                           PIR2 equ 0Dh ;# 
  1051  000D                     # 652 "C:\Program Files (x86)\Microchip\xc8\v2.00\pic\include\pic16f887.h"
  1052                           TMR1 equ 0Eh ;# 
  1053  000E                     # 659 "C:\Program Files (x86)\Microchip\xc8\v2.00\pic\include\pic16f887.h"
  1054                           TMR1L equ 0Eh ;# 
  1055  000E                     # 666 "C:\Program Files (x86)\Microchip\xc8\v2.00\pic\include\pic16f887.h"
  1056                           TMR1H equ 0Fh ;# 
  1057  000F                     # 673 "C:\Program Files (x86)\Microchip\xc8\v2.00\pic\include\pic16f887.h"
  1058                           T1CON equ 010h ;# 
  1059  0010                     # 767 "C:\Program Files (x86)\Microchip\xc8\v2.00\pic\include\pic16f887.h"
  1060                           TMR2 equ 011h ;# 
  1061  0011                     # 774 "C:\Program Files (x86)\Microchip\xc8\v2.00\pic\include\pic16f887.h"
  1062                           T2CON equ 012h ;# 
  1063  0012                     # 845 "C:\Program Files (x86)\Microchip\xc8\v2.00\pic\include\pic16f887.h"
  1064                           SSPBUF equ 013h ;# 
  1065  0013                     # 852 "C:\Program Files (x86)\Microchip\xc8\v2.00\pic\include\pic16f887.h"
  1066                           SSPCON equ 014h ;# 
  1067  0014                     # 922 "C:\Program Files (x86)\Microchip\xc8\v2.00\pic\include\pic16f887.h"
  1068                           CCPR1 equ 015h ;# 
  1069  0015                     # 929 "C:\Program Files (x86)\Microchip\xc8\v2.00\pic\include\pic16f887.h"
  1070                           CCPR1L equ 015h ;# 
  1071  0015                     # 936 "C:\Program Files (x86)\Microchip\xc8\v2.00\pic\include\pic16f887.h"
  1072                           CCPR1H equ 016h ;# 
  1073  0016                     # 943 "C:\Program Files (x86)\Microchip\xc8\v2.00\pic\include\pic16f887.h"
  1074                           CCP1CON equ 017h ;# 
  1075  0017                     # 1040 "C:\Program Files (x86)\Microchip\xc8\v2.00\pic\include\pic16f887.h"
  1076                           RCSTA equ 018h ;# 
  1077  0018                     # 1135 "C:\Program Files (x86)\Microchip\xc8\v2.00\pic\include\pic16f887.h"
  1078                           TXREG equ 019h ;# 
  1079  0019                     # 1142 "C:\Program Files (x86)\Microchip\xc8\v2.00\pic\include\pic16f887.h"
  1080                           RCREG equ 01Ah ;# 
  1081  001A                     # 1149 "C:\Program Files (x86)\Microchip\xc8\v2.00\pic\include\pic16f887.h"
  1082                           CCPR2 equ 01Bh ;# 
  1083  001B                     # 1156 "C:\Program Files (x86)\Microchip\xc8\v2.00\pic\include\pic16f887.h"
  1084                           CCPR2L equ 01Bh ;# 
  1085  001B                     # 1163 "C:\Program Files (x86)\Microchip\xc8\v2.00\pic\include\pic16f887.h"
  1086                           CCPR2H equ 01Ch ;# 
  1087  001C                     # 1170 "C:\Program Files (x86)\Microchip\xc8\v2.00\pic\include\pic16f887.h"
  1088                           CCP2CON equ 01Dh ;# 
  1089  001D                     # 1240 "C:\Program Files (x86)\Microchip\xc8\v2.00\pic\include\pic16f887.h"
  1090                           ADRESH equ 01Eh ;# 
  1091  001E                     # 1247 "C:\Program Files (x86)\Microchip\xc8\v2.00\pic\include\pic16f887.h"
  1092                           ADCON0 equ 01Fh ;# 
  1093  001F                     # 1348 "C:\Program Files (x86)\Microchip\xc8\v2.00\pic\include\pic16f887.h"
  1094                           OPTION_REG equ 081h ;# 
  1095  0081                     # 1418 "C:\Program Files (x86)\Microchip\xc8\v2.00\pic\include\pic16f887.h"
  1096                           TRISA equ 085h ;# 
  1097  0085                     # 1480 "C:\Program Files (x86)\Microchip\xc8\v2.00\pic\include\pic16f887.h"
  1098                           TRISB equ 086h ;# 
  1099  0086                     # 1542 "C:\Program Files (x86)\Microchip\xc8\v2.00\pic\include\pic16f887.h"
  1100                           TRISC equ 087h ;# 
  1101  0087                     # 1604 "C:\Program Files (x86)\Microchip\xc8\v2.00\pic\include\pic16f887.h"
  1102                           TRISD equ 088h ;# 
  1103  0088                     # 1666 "C:\Program Files (x86)\Microchip\xc8\v2.00\pic\include\pic16f887.h"
  1104                           TRISE equ 089h ;# 
  1105  0089                     # 1704 "C:\Program Files (x86)\Microchip\xc8\v2.00\pic\include\pic16f887.h"
  1106                           PIE1 equ 08Ch ;# 
  1107  008C                     # 1760 "C:\Program Files (x86)\Microchip\xc8\v2.00\pic\include\pic16f887.h"
  1108                           PIE2 equ 08Dh ;# 
  1109  008D                     # 1817 "C:\Program Files (x86)\Microchip\xc8\v2.00\pic\include\pic16f887.h"
  1110                           PCON equ 08Eh ;# 
  1111  008E                     # 1864 "C:\Program Files (x86)\Microchip\xc8\v2.00\pic\include\pic16f887.h"
  1112                           OSCCON equ 08Fh ;# 
  1113  008F                     # 1929 "C:\Program Files (x86)\Microchip\xc8\v2.00\pic\include\pic16f887.h"
  1114                           OSCTUNE equ 090h ;# 
  1115  0090                     # 1981 "C:\Program Files (x86)\Microchip\xc8\v2.00\pic\include\pic16f887.h"
  1116                           SSPCON2 equ 091h ;# 
  1117  0091                     # 2043 "C:\Program Files (x86)\Microchip\xc8\v2.00\pic\include\pic16f887.h"
  1118                           PR2 equ 092h ;# 
  1119  0092                     # 2050 "C:\Program Files (x86)\Microchip\xc8\v2.00\pic\include\pic16f887.h"
  1120                           SSPADD equ 093h ;# 
  1121  0093                     # 2057 "C:\Program Files (x86)\Microchip\xc8\v2.00\pic\include\pic16f887.h"
  1122                           SSPMSK equ 093h ;# 
  1123  0093                     # 2062 "C:\Program Files (x86)\Microchip\xc8\v2.00\pic\include\pic16f887.h"
  1124                           MSK equ 093h ;# 
  1125  0093                     # 2179 "C:\Program Files (x86)\Microchip\xc8\v2.00\pic\include\pic16f887.h"
  1126                           SSPSTAT equ 094h ;# 
  1127  0094                     # 2348 "C:\Program Files (x86)\Microchip\xc8\v2.00\pic\include\pic16f887.h"
  1128                           WPUB equ 095h ;# 
  1129  0095                     # 2418 "C:\Program Files (x86)\Microchip\xc8\v2.00\pic\include\pic16f887.h"
  1130                           IOCB equ 096h ;# 
  1131  0096                     # 2488 "C:\Program Files (x86)\Microchip\xc8\v2.00\pic\include\pic16f887.h"
  1132                           VRCON equ 097h ;# 
  1133  0097                     # 2558 "C:\Program Files (x86)\Microchip\xc8\v2.00\pic\include\pic16f887.h"
  1134                           TXSTA equ 098h ;# 
  1135  0098                     # 2644 "C:\Program Files (x86)\Microchip\xc8\v2.00\pic\include\pic16f887.h"
  1136                           SPBRG equ 099h ;# 
  1137  0099                     # 2706 "C:\Program Files (x86)\Microchip\xc8\v2.00\pic\include\pic16f887.h"
  1138                           SPBRGH equ 09Ah ;# 
  1139  009A                     # 2776 "C:\Program Files (x86)\Microchip\xc8\v2.00\pic\include\pic16f887.h"
  1140                           PWM1CON equ 09Bh ;# 
  1141  009B                     # 2846 "C:\Program Files (x86)\Microchip\xc8\v2.00\pic\include\pic16f887.h"
  1142                           ECCPAS equ 09Ch ;# 
  1143  009C                     # 2928 "C:\Program Files (x86)\Microchip\xc8\v2.00\pic\include\pic16f887.h"
  1144                           PSTRCON equ 09Dh ;# 
  1145  009D                     # 2972 "C:\Program Files (x86)\Microchip\xc8\v2.00\pic\include\pic16f887.h"
  1146                           ADRESL equ 09Eh ;# 
  1147  009E                     # 2979 "C:\Program Files (x86)\Microchip\xc8\v2.00\pic\include\pic16f887.h"
  1148                           ADCON1 equ 09Fh ;# 
  1149  009F                     # 3013 "C:\Program Files (x86)\Microchip\xc8\v2.00\pic\include\pic16f887.h"
  1150                           WDTCON equ 0105h ;# 
  1151  0105                     # 3066 "C:\Program Files (x86)\Microchip\xc8\v2.00\pic\include\pic16f887.h"
  1152                           CM1CON0 equ 0107h ;# 
  1153  0107                     # 3131 "C:\Program Files (x86)\Microchip\xc8\v2.00\pic\include\pic16f887.h"
  1154                           CM2CON0 equ 0108h ;# 
  1155  0108                     # 3196 "C:\Program Files (x86)\Microchip\xc8\v2.00\pic\include\pic16f887.h"
  1156                           CM2CON1 equ 0109h ;# 
  1157  0109                     # 3247 "C:\Program Files (x86)\Microchip\xc8\v2.00\pic\include\pic16f887.h"
  1158                           EEDATA equ 010Ch ;# 
  1159  010C                     # 3252 "C:\Program Files (x86)\Microchip\xc8\v2.00\pic\include\pic16f887.h"
  1160                           EEDAT equ 010Ch ;# 
  1161  010C                     # 3259 "C:\Program Files (x86)\Microchip\xc8\v2.00\pic\include\pic16f887.h"
  1162                           EEADR equ 010Dh ;# 
  1163  010D                     # 3266 "C:\Program Files (x86)\Microchip\xc8\v2.00\pic\include\pic16f887.h"
  1164                           EEDATH equ 010Eh ;# 
  1165  010E                     # 3273 "C:\Program Files (x86)\Microchip\xc8\v2.00\pic\include\pic16f887.h"
  1166                           EEADRH equ 010Fh ;# 
  1167  010F                     # 3280 "C:\Program Files (x86)\Microchip\xc8\v2.00\pic\include\pic16f887.h"
  1168                           SRCON equ 0185h ;# 
  1169  0185                     # 3337 "C:\Program Files (x86)\Microchip\xc8\v2.00\pic\include\pic16f887.h"
  1170                           BAUDCTL equ 0187h ;# 
  1171  0187                     # 3389 "C:\Program Files (x86)\Microchip\xc8\v2.00\pic\include\pic16f887.h"
  1172                           ANSEL equ 0188h ;# 
  1173  0188                     # 3451 "C:\Program Files (x86)\Microchip\xc8\v2.00\pic\include\pic16f887.h"
  1174                           ANSELH equ 0189h ;# 
  1175  0189                     # 3501 "C:\Program Files (x86)\Microchip\xc8\v2.00\pic\include\pic16f887.h"
  1176                           EECON1 equ 018Ch ;# 
  1177  018C                     # 3546 "C:\Program Files (x86)\Microchip\xc8\v2.00\pic\include\pic16f887.h"
  1178                           EECON2 equ 018Dh ;# 
  1179  018D                     # 54 "C:\Program Files (x86)\Microchip\xc8\v2.00\pic\include\pic16f887.h"
  1180                           INDF equ 00h ;# 
  1181  0000                     # 61 "C:\Program Files (x86)\Microchip\xc8\v2.00\pic\include\pic16f887.h"
  1182                           TMR0 equ 01h ;# 
  1183  0001                     # 68 "C:\Program Files (x86)\Microchip\xc8\v2.00\pic\include\pic16f887.h"
  1184                           PCL equ 02h ;# 
  1185  0002                     # 75 "C:\Program Files (x86)\Microchip\xc8\v2.00\pic\include\pic16f887.h"
  1186                           STATUS equ 03h ;# 
  1187  0003                     # 161 "C:\Program Files (x86)\Microchip\xc8\v2.00\pic\include\pic16f887.h"
  1188                           FSR equ 04h ;# 
  1189  0004                     # 168 "C:\Program Files (x86)\Microchip\xc8\v2.00\pic\include\pic16f887.h"
  1190                           PORTA equ 05h ;# 
  1191  0005                     # 230 "C:\Program Files (x86)\Microchip\xc8\v2.00\pic\include\pic16f887.h"
  1192                           PORTB equ 06h ;# 
  1193  0006                     # 292 "C:\Program Files (x86)\Microchip\xc8\v2.00\pic\include\pic16f887.h"
  1194                           PORTC equ 07h ;# 
  1195  0007                     # 354 "C:\Program Files (x86)\Microchip\xc8\v2.00\pic\include\pic16f887.h"
  1196                           PORTD equ 08h ;# 
  1197  0008                     # 416 "C:\Program Files (x86)\Microchip\xc8\v2.00\pic\include\pic16f887.h"
  1198                           PORTE equ 09h ;# 
  1199  0009                     # 454 "C:\Program Files (x86)\Microchip\xc8\v2.00\pic\include\pic16f887.h"
  1200                           PCLATH equ 0Ah ;# 
  1201  000A                     # 461 "C:\Program Files (x86)\Microchip\xc8\v2.00\pic\include\pic16f887.h"
  1202                           INTCON equ 0Bh ;# 
  1203  000B                     # 539 "C:\Program Files (x86)\Microchip\xc8\v2.00\pic\include\pic16f887.h"
  1204                           PIR1 equ 0Ch ;# 
  1205  000C                     # 595 "C:\Program Files (x86)\Microchip\xc8\v2.00\pic\include\pic16f887.h"
  1206                           PIR2 equ 0Dh ;# 
  1207  000D                     # 652 "C:\Program Files (x86)\Microchip\xc8\v2.00\pic\include\pic16f887.h"
  1208                           TMR1 equ 0Eh ;# 
  1209  000E                     # 659 "C:\Program Files (x86)\Microchip\xc8\v2.00\pic\include\pic16f887.h"
  1210                           TMR1L equ 0Eh ;# 
  1211  000E                     # 666 "C:\Program Files (x86)\Microchip\xc8\v2.00\pic\include\pic16f887.h"
  1212                           TMR1H equ 0Fh ;# 
  1213  000F                     # 673 "C:\Program Files (x86)\Microchip\xc8\v2.00\pic\include\pic16f887.h"
  1214                           T1CON equ 010h ;# 
  1215  0010                     # 767 "C:\Program Files (x86)\Microchip\xc8\v2.00\pic\include\pic16f887.h"
  1216                           TMR2 equ 011h ;# 
  1217  0011                     # 774 "C:\Program Files (x86)\Microchip\xc8\v2.00\pic\include\pic16f887.h"
  1218                           T2CON equ 012h ;# 
  1219  0012                     # 845 "C:\Program Files (x86)\Microchip\xc8\v2.00\pic\include\pic16f887.h"
  1220                           SSPBUF equ 013h ;# 
  1221  0013                     # 852 "C:\Program Files (x86)\Microchip\xc8\v2.00\pic\include\pic16f887.h"
  1222                           SSPCON equ 014h ;# 
  1223  0014                     # 922 "C:\Program Files (x86)\Microchip\xc8\v2.00\pic\include\pic16f887.h"
  1224                           CCPR1 equ 015h ;# 
  1225  0015                     # 929 "C:\Program Files (x86)\Microchip\xc8\v2.00\pic\include\pic16f887.h"
  1226                           CCPR1L equ 015h ;# 
  1227  0015                     # 936 "C:\Program Files (x86)\Microchip\xc8\v2.00\pic\include\pic16f887.h"
  1228                           CCPR1H equ 016h ;# 
  1229  0016                     # 943 "C:\Program Files (x86)\Microchip\xc8\v2.00\pic\include\pic16f887.h"
  1230                           CCP1CON equ 017h ;# 
  1231  0017                     # 1040 "C:\Program Files (x86)\Microchip\xc8\v2.00\pic\include\pic16f887.h"
  1232                           RCSTA equ 018h ;# 
  1233  0018                     # 1135 "C:\Program Files (x86)\Microchip\xc8\v2.00\pic\include\pic16f887.h"
  1234                           TXREG equ 019h ;# 
  1235  0019                     # 1142 "C:\Program Files (x86)\Microchip\xc8\v2.00\pic\include\pic16f887.h"
  1236                           RCREG equ 01Ah ;# 
  1237  001A                     # 1149 "C:\Program Files (x86)\Microchip\xc8\v2.00\pic\include\pic16f887.h"
  1238                           CCPR2 equ 01Bh ;# 
  1239  001B                     # 1156 "C:\Program Files (x86)\Microchip\xc8\v2.00\pic\include\pic16f887.h"
  1240                           CCPR2L equ 01Bh ;# 
  1241  001B                     # 1163 "C:\Program Files (x86)\Microchip\xc8\v2.00\pic\include\pic16f887.h"
  1242                           CCPR2H equ 01Ch ;# 
  1243  001C                     # 1170 "C:\Program Files (x86)\Microchip\xc8\v2.00\pic\include\pic16f887.h"
  1244                           CCP2CON equ 01Dh ;# 
  1245  001D                     # 1240 "C:\Program Files (x86)\Microchip\xc8\v2.00\pic\include\pic16f887.h"
  1246                           ADRESH equ 01Eh ;# 
  1247  001E                     # 1247 "C:\Program Files (x86)\Microchip\xc8\v2.00\pic\include\pic16f887.h"
  1248                           ADCON0 equ 01Fh ;# 
  1249  001F                     # 1348 "C:\Program Files (x86)\Microchip\xc8\v2.00\pic\include\pic16f887.h"
  1250                           OPTION_REG equ 081h ;# 
  1251  0081                     # 1418 "C:\Program Files (x86)\Microchip\xc8\v2.00\pic\include\pic16f887.h"
  1252                           TRISA equ 085h ;# 
  1253  0085                     # 1480 "C:\Program Files (x86)\Microchip\xc8\v2.00\pic\include\pic16f887.h"
  1254                           TRISB equ 086h ;# 
  1255  0086                     # 1542 "C:\Program Files (x86)\Microchip\xc8\v2.00\pic\include\pic16f887.h"
  1256                           TRISC equ 087h ;# 
  1257  0087                     # 1604 "C:\Program Files (x86)\Microchip\xc8\v2.00\pic\include\pic16f887.h"
  1258                           TRISD equ 088h ;# 
  1259  0088                     # 1666 "C:\Program Files (x86)\Microchip\xc8\v2.00\pic\include\pic16f887.h"
  1260                           TRISE equ 089h ;# 
  1261  0089                     # 1704 "C:\Program Files (x86)\Microchip\xc8\v2.00\pic\include\pic16f887.h"
  1262                           PIE1 equ 08Ch ;# 
  1263  008C                     # 1760 "C:\Program Files (x86)\Microchip\xc8\v2.00\pic\include\pic16f887.h"
  1264                           PIE2 equ 08Dh ;# 
  1265  008D                     # 1817 "C:\Program Files (x86)\Microchip\xc8\v2.00\pic\include\pic16f887.h"
  1266                           PCON equ 08Eh ;# 
  1267  008E                     # 1864 "C:\Program Files (x86)\Microchip\xc8\v2.00\pic\include\pic16f887.h"
  1268                           OSCCON equ 08Fh ;# 
  1269  008F                     # 1929 "C:\Program Files (x86)\Microchip\xc8\v2.00\pic\include\pic16f887.h"
  1270                           OSCTUNE equ 090h ;# 
  1271  0090                     # 1981 "C:\Program Files (x86)\Microchip\xc8\v2.00\pic\include\pic16f887.h"
  1272                           SSPCON2 equ 091h ;# 
  1273  0091                     # 2043 "C:\Program Files (x86)\Microchip\xc8\v2.00\pic\include\pic16f887.h"
  1274                           PR2 equ 092h ;# 
  1275  0092                     # 2050 "C:\Program Files (x86)\Microchip\xc8\v2.00\pic\include\pic16f887.h"
  1276                           SSPADD equ 093h ;# 
  1277  0093                     # 2057 "C:\Program Files (x86)\Microchip\xc8\v2.00\pic\include\pic16f887.h"
  1278                           SSPMSK equ 093h ;# 
  1279  0093                     # 2062 "C:\Program Files (x86)\Microchip\xc8\v2.00\pic\include\pic16f887.h"
  1280                           MSK equ 093h ;# 
  1281  0093                     # 2179 "C:\Program Files (x86)\Microchip\xc8\v2.00\pic\include\pic16f887.h"
  1282                           SSPSTAT equ 094h ;# 
  1283  0094                     # 2348 "C:\Program Files (x86)\Microchip\xc8\v2.00\pic\include\pic16f887.h"
  1284                           WPUB equ 095h ;# 
  1285  0095                     # 2418 "C:\Program Files (x86)\Microchip\xc8\v2.00\pic\include\pic16f887.h"
  1286                           IOCB equ 096h ;# 
  1287  0096                     # 2488 "C:\Program Files (x86)\Microchip\xc8\v2.00\pic\include\pic16f887.h"
  1288                           VRCON equ 097h ;# 
  1289  0097                     # 2558 "C:\Program Files (x86)\Microchip\xc8\v2.00\pic\include\pic16f887.h"
  1290                           TXSTA equ 098h ;# 
  1291  0098                     # 2644 "C:\Program Files (x86)\Microchip\xc8\v2.00\pic\include\pic16f887.h"
  1292                           SPBRG equ 099h ;# 
  1293  0099                     # 2706 "C:\Program Files (x86)\Microchip\xc8\v2.00\pic\include\pic16f887.h"
  1294                           SPBRGH equ 09Ah ;# 
  1295  009A                     # 2776 "C:\Program Files (x86)\Microchip\xc8\v2.00\pic\include\pic16f887.h"
  1296                           PWM1CON equ 09Bh ;# 
  1297  009B                     # 2846 "C:\Program Files (x86)\Microchip\xc8\v2.00\pic\include\pic16f887.h"
  1298                           ECCPAS equ 09Ch ;# 
  1299  009C                     # 2928 "C:\Program Files (x86)\Microchip\xc8\v2.00\pic\include\pic16f887.h"
  1300                           PSTRCON equ 09Dh ;# 
  1301  009D                     # 2972 "C:\Program Files (x86)\Microchip\xc8\v2.00\pic\include\pic16f887.h"
  1302                           ADRESL equ 09Eh ;# 
  1303  009E                     # 2979 "C:\Program Files (x86)\Microchip\xc8\v2.00\pic\include\pic16f887.h"
  1304                           ADCON1 equ 09Fh ;# 
  1305  009F                     # 3013 "C:\Program Files (x86)\Microchip\xc8\v2.00\pic\include\pic16f887.h"
  1306                           WDTCON equ 0105h ;# 
  1307  0105                     # 3066 "C:\Program Files (x86)\Microchip\xc8\v2.00\pic\include\pic16f887.h"
  1308                           CM1CON0 equ 0107h ;# 
  1309  0107                     # 3131 "C:\Program Files (x86)\Microchip\xc8\v2.00\pic\include\pic16f887.h"
  1310                           CM2CON0 equ 0108h ;# 
  1311  0108                     # 3196 "C:\Program Files (x86)\Microchip\xc8\v2.00\pic\include\pic16f887.h"
  1312                           CM2CON1 equ 0109h ;# 
  1313  0109                     # 3247 "C:\Program Files (x86)\Microchip\xc8\v2.00\pic\include\pic16f887.h"
  1314                           EEDATA equ 010Ch ;# 
  1315  010C                     # 3252 "C:\Program Files (x86)\Microchip\xc8\v2.00\pic\include\pic16f887.h"
  1316                           EEDAT equ 010Ch ;# 
  1317  010C                     # 3259 "C:\Program Files (x86)\Microchip\xc8\v2.00\pic\include\pic16f887.h"
  1318                           EEADR equ 010Dh ;# 
  1319  010D                     # 3266 "C:\Program Files (x86)\Microchip\xc8\v2.00\pic\include\pic16f887.h"
  1320                           EEDATH equ 010Eh ;# 
  1321  010E                     # 3273 "C:\Program Files (x86)\Microchip\xc8\v2.00\pic\include\pic16f887.h"
  1322                           EEADRH equ 010Fh ;# 
  1323  010F                     # 3280 "C:\Program Files (x86)\Microchip\xc8\v2.00\pic\include\pic16f887.h"
  1324                           SRCON equ 0185h ;# 
  1325  0185                     # 3337 "C:\Program Files (x86)\Microchip\xc8\v2.00\pic\include\pic16f887.h"
  1326                           BAUDCTL equ 0187h ;# 
  1327  0187                     # 3389 "C:\Program Files (x86)\Microchip\xc8\v2.00\pic\include\pic16f887.h"
  1328                           ANSEL equ 0188h ;# 
  1329  0188                     # 3451 "C:\Program Files (x86)\Microchip\xc8\v2.00\pic\include\pic16f887.h"
  1330                           ANSELH equ 0189h ;# 
  1331  0189                     # 3501 "C:\Program Files (x86)\Microchip\xc8\v2.00\pic\include\pic16f887.h"
  1332                           EECON1 equ 018Ch ;# 
  1333  018C                     # 3546 "C:\Program Files (x86)\Microchip\xc8\v2.00\pic\include\pic16f887.h"
  1334                           EECON2 equ 018Dh ;# 
  1335  018D                     # 54 "C:\Program Files (x86)\Microchip\xc8\v2.00\pic\include\pic16f887.h"
  1336                           INDF equ 00h ;# 
  1337  0000                     # 61 "C:\Program Files (x86)\Microchip\xc8\v2.00\pic\include\pic16f887.h"
  1338                           TMR0 equ 01h ;# 
  1339  0001                     # 68 "C:\Program Files (x86)\Microchip\xc8\v2.00\pic\include\pic16f887.h"
  1340                           PCL equ 02h ;# 
  1341  0002                     # 75 "C:\Program Files (x86)\Microchip\xc8\v2.00\pic\include\pic16f887.h"
  1342                           STATUS equ 03h ;# 
  1343  0003                     # 161 "C:\Program Files (x86)\Microchip\xc8\v2.00\pic\include\pic16f887.h"
  1344                           FSR equ 04h ;# 
  1345  0004                     # 168 "C:\Program Files (x86)\Microchip\xc8\v2.00\pic\include\pic16f887.h"
  1346                           PORTA equ 05h ;# 
  1347  0005                     # 230 "C:\Program Files (x86)\Microchip\xc8\v2.00\pic\include\pic16f887.h"
  1348                           PORTB equ 06h ;# 
  1349  0006                     # 292 "C:\Program Files (x86)\Microchip\xc8\v2.00\pic\include\pic16f887.h"
  1350                           PORTC equ 07h ;# 
  1351  0007                     # 354 "C:\Program Files (x86)\Microchip\xc8\v2.00\pic\include\pic16f887.h"
  1352                           PORTD equ 08h ;# 
  1353  0008                     # 416 "C:\Program Files (x86)\Microchip\xc8\v2.00\pic\include\pic16f887.h"
  1354                           PORTE equ 09h ;# 
  1355  0009                     # 454 "C:\Program Files (x86)\Microchip\xc8\v2.00\pic\include\pic16f887.h"
  1356                           PCLATH equ 0Ah ;# 
  1357  000A                     # 461 "C:\Program Files (x86)\Microchip\xc8\v2.00\pic\include\pic16f887.h"
  1358                           INTCON equ 0Bh ;# 
  1359  000B                     # 539 "C:\Program Files (x86)\Microchip\xc8\v2.00\pic\include\pic16f887.h"
  1360                           PIR1 equ 0Ch ;# 
  1361  000C                     # 595 "C:\Program Files (x86)\Microchip\xc8\v2.00\pic\include\pic16f887.h"
  1362                           PIR2 equ 0Dh ;# 
  1363  000D                     # 652 "C:\Program Files (x86)\Microchip\xc8\v2.00\pic\include\pic16f887.h"
  1364                           TMR1 equ 0Eh ;# 
  1365  000E                     # 659 "C:\Program Files (x86)\Microchip\xc8\v2.00\pic\include\pic16f887.h"
  1366                           TMR1L equ 0Eh ;# 
  1367  000E                     # 666 "C:\Program Files (x86)\Microchip\xc8\v2.00\pic\include\pic16f887.h"
  1368                           TMR1H equ 0Fh ;# 
  1369  000F                     # 673 "C:\Program Files (x86)\Microchip\xc8\v2.00\pic\include\pic16f887.h"
  1370                           T1CON equ 010h ;# 
  1371  0010                     # 767 "C:\Program Files (x86)\Microchip\xc8\v2.00\pic\include\pic16f887.h"
  1372                           TMR2 equ 011h ;# 
  1373  0011                     # 774 "C:\Program Files (x86)\Microchip\xc8\v2.00\pic\include\pic16f887.h"
  1374                           T2CON equ 012h ;# 
  1375  0012                     # 845 "C:\Program Files (x86)\Microchip\xc8\v2.00\pic\include\pic16f887.h"
  1376                           SSPBUF equ 013h ;# 
  1377  0013                     # 852 "C:\Program Files (x86)\Microchip\xc8\v2.00\pic\include\pic16f887.h"
  1378                           SSPCON equ 014h ;# 
  1379  0014                     # 922 "C:\Program Files (x86)\Microchip\xc8\v2.00\pic\include\pic16f887.h"
  1380                           CCPR1 equ 015h ;# 
  1381  0015                     # 929 "C:\Program Files (x86)\Microchip\xc8\v2.00\pic\include\pic16f887.h"
  1382                           CCPR1L equ 015h ;# 
  1383  0015                     # 936 "C:\Program Files (x86)\Microchip\xc8\v2.00\pic\include\pic16f887.h"
  1384                           CCPR1H equ 016h ;# 
  1385  0016                     # 943 "C:\Program Files (x86)\Microchip\xc8\v2.00\pic\include\pic16f887.h"
  1386                           CCP1CON equ 017h ;# 
  1387  0017                     # 1040 "C:\Program Files (x86)\Microchip\xc8\v2.00\pic\include\pic16f887.h"
  1388                           RCSTA equ 018h ;# 
  1389  0018                     # 1135 "C:\Program Files (x86)\Microchip\xc8\v2.00\pic\include\pic16f887.h"
  1390                           TXREG equ 019h ;# 
  1391  0019                     # 1142 "C:\Program Files (x86)\Microchip\xc8\v2.00\pic\include\pic16f887.h"
  1392                           RCREG equ 01Ah ;# 
  1393  001A                     # 1149 "C:\Program Files (x86)\Microchip\xc8\v2.00\pic\include\pic16f887.h"
  1394                           CCPR2 equ 01Bh ;# 
  1395  001B                     # 1156 "C:\Program Files (x86)\Microchip\xc8\v2.00\pic\include\pic16f887.h"
  1396                           CCPR2L equ 01Bh ;# 
  1397  001B                     # 1163 "C:\Program Files (x86)\Microchip\xc8\v2.00\pic\include\pic16f887.h"
  1398                           CCPR2H equ 01Ch ;# 
  1399  001C                     # 1170 "C:\Program Files (x86)\Microchip\xc8\v2.00\pic\include\pic16f887.h"
  1400                           CCP2CON equ 01Dh ;# 
  1401  001D                     # 1240 "C:\Program Files (x86)\Microchip\xc8\v2.00\pic\include\pic16f887.h"
  1402                           ADRESH equ 01Eh ;# 
  1403  001E                     # 1247 "C:\Program Files (x86)\Microchip\xc8\v2.00\pic\include\pic16f887.h"
  1404                           ADCON0 equ 01Fh ;# 
  1405  001F                     # 1348 "C:\Program Files (x86)\Microchip\xc8\v2.00\pic\include\pic16f887.h"
  1406                           OPTION_REG equ 081h ;# 
  1407  0081                     # 1418 "C:\Program Files (x86)\Microchip\xc8\v2.00\pic\include\pic16f887.h"
  1408                           TRISA equ 085h ;# 
  1409  0085                     # 1480 "C:\Program Files (x86)\Microchip\xc8\v2.00\pic\include\pic16f887.h"
  1410                           TRISB equ 086h ;# 
  1411  0086                     # 1542 "C:\Program Files (x86)\Microchip\xc8\v2.00\pic\include\pic16f887.h"
  1412                           TRISC equ 087h ;# 
  1413  0087                     # 1604 "C:\Program Files (x86)\Microchip\xc8\v2.00\pic\include\pic16f887.h"
  1414                           TRISD equ 088h ;# 
  1415  0088                     # 1666 "C:\Program Files (x86)\Microchip\xc8\v2.00\pic\include\pic16f887.h"
  1416                           TRISE equ 089h ;# 
  1417  0089                     # 1704 "C:\Program Files (x86)\Microchip\xc8\v2.00\pic\include\pic16f887.h"
  1418                           PIE1 equ 08Ch ;# 
  1419  008C                     # 1760 "C:\Program Files (x86)\Microchip\xc8\v2.00\pic\include\pic16f887.h"
  1420                           PIE2 equ 08Dh ;# 
  1421  008D                     # 1817 "C:\Program Files (x86)\Microchip\xc8\v2.00\pic\include\pic16f887.h"
  1422                           PCON equ 08Eh ;# 
  1423  008E                     # 1864 "C:\Program Files (x86)\Microchip\xc8\v2.00\pic\include\pic16f887.h"
  1424                           OSCCON equ 08Fh ;# 
  1425  008F                     # 1929 "C:\Program Files (x86)\Microchip\xc8\v2.00\pic\include\pic16f887.h"
  1426                           OSCTUNE equ 090h ;# 
  1427  0090                     # 1981 "C:\Program Files (x86)\Microchip\xc8\v2.00\pic\include\pic16f887.h"
  1428                           SSPCON2 equ 091h ;# 
  1429  0091                     # 2043 "C:\Program Files (x86)\Microchip\xc8\v2.00\pic\include\pic16f887.h"
  1430                           PR2 equ 092h ;# 
  1431  0092                     # 2050 "C:\Program Files (x86)\Microchip\xc8\v2.00\pic\include\pic16f887.h"
  1432                           SSPADD equ 093h ;# 
  1433  0093                     # 2057 "C:\Program Files (x86)\Microchip\xc8\v2.00\pic\include\pic16f887.h"
  1434                           SSPMSK equ 093h ;# 
  1435  0093                     # 2062 "C:\Program Files (x86)\Microchip\xc8\v2.00\pic\include\pic16f887.h"
  1436                           MSK equ 093h ;# 
  1437  0093                     # 2179 "C:\Program Files (x86)\Microchip\xc8\v2.00\pic\include\pic16f887.h"
  1438                           SSPSTAT equ 094h ;# 
  1439  0094                     # 2348 "C:\Program Files (x86)\Microchip\xc8\v2.00\pic\include\pic16f887.h"
  1440                           WPUB equ 095h ;# 
  1441  0095                     # 2418 "C:\Program Files (x86)\Microchip\xc8\v2.00\pic\include\pic16f887.h"
  1442                           IOCB equ 096h ;# 
  1443  0096                     # 2488 "C:\Program Files (x86)\Microchip\xc8\v2.00\pic\include\pic16f887.h"
  1444                           VRCON equ 097h ;# 
  1445  0097                     # 2558 "C:\Program Files (x86)\Microchip\xc8\v2.00\pic\include\pic16f887.h"
  1446                           TXSTA equ 098h ;# 
  1447  0098                     # 2644 "C:\Program Files (x86)\Microchip\xc8\v2.00\pic\include\pic16f887.h"
  1448                           SPBRG equ 099h ;# 
  1449  0099                     # 2706 "C:\Program Files (x86)\Microchip\xc8\v2.00\pic\include\pic16f887.h"
  1450                           SPBRGH equ 09Ah ;# 
  1451  009A                     # 2776 "C:\Program Files (x86)\Microchip\xc8\v2.00\pic\include\pic16f887.h"
  1452                           PWM1CON equ 09Bh ;# 
  1453  009B                     # 2846 "C:\Program Files (x86)\Microchip\xc8\v2.00\pic\include\pic16f887.h"
  1454                           ECCPAS equ 09Ch ;# 
  1455  009C                     # 2928 "C:\Program Files (x86)\Microchip\xc8\v2.00\pic\include\pic16f887.h"
  1456                           PSTRCON equ 09Dh ;# 
  1457  009D                     # 2972 "C:\Program Files (x86)\Microchip\xc8\v2.00\pic\include\pic16f887.h"
  1458                           ADRESL equ 09Eh ;# 
  1459  009E                     # 2979 "C:\Program Files (x86)\Microchip\xc8\v2.00\pic\include\pic16f887.h"
  1460                           ADCON1 equ 09Fh ;# 
  1461  009F                     # 3013 "C:\Program Files (x86)\Microchip\xc8\v2.00\pic\include\pic16f887.h"
  1462                           WDTCON equ 0105h ;# 
  1463  0105                     # 3066 "C:\Program Files (x86)\Microchip\xc8\v2.00\pic\include\pic16f887.h"
  1464                           CM1CON0 equ 0107h ;# 
  1465  0107                     # 3131 "C:\Program Files (x86)\Microchip\xc8\v2.00\pic\include\pic16f887.h"
  1466                           CM2CON0 equ 0108h ;# 
  1467  0108                     # 3196 "C:\Program Files (x86)\Microchip\xc8\v2.00\pic\include\pic16f887.h"
  1468                           CM2CON1 equ 0109h ;# 
  1469  0109                     # 3247 "C:\Program Files (x86)\Microchip\xc8\v2.00\pic\include\pic16f887.h"
  1470                           EEDATA equ 010Ch ;# 
  1471  010C                     # 3252 "C:\Program Files (x86)\Microchip\xc8\v2.00\pic\include\pic16f887.h"
  1472                           EEDAT equ 010Ch ;# 
  1473  010C                     # 3259 "C:\Program Files (x86)\Microchip\xc8\v2.00\pic\include\pic16f887.h"
  1474                           EEADR equ 010Dh ;# 
  1475  010D                     # 3266 "C:\Program Files (x86)\Microchip\xc8\v2.00\pic\include\pic16f887.h"
  1476                           EEDATH equ 010Eh ;# 
  1477  010E                     # 3273 "C:\Program Files (x86)\Microchip\xc8\v2.00\pic\include\pic16f887.h"
  1478                           EEADRH equ 010Fh ;# 
  1479  010F                     # 3280 "C:\Program Files (x86)\Microchip\xc8\v2.00\pic\include\pic16f887.h"
  1480                           SRCON equ 0185h ;# 
  1481  0185                     # 3337 "C:\Program Files (x86)\Microchip\xc8\v2.00\pic\include\pic16f887.h"
  1482                           BAUDCTL equ 0187h ;# 
  1483  0187                     # 3389 "C:\Program Files (x86)\Microchip\xc8\v2.00\pic\include\pic16f887.h"
  1484                           ANSEL equ 0188h ;# 
  1485  0188                     # 3451 "C:\Program Files (x86)\Microchip\xc8\v2.00\pic\include\pic16f887.h"
  1486                           ANSELH equ 0189h ;# 
  1487  0189                     # 3501 "C:\Program Files (x86)\Microchip\xc8\v2.00\pic\include\pic16f887.h"
  1488                           EECON1 equ 018Ch ;# 
  1489  018C                     # 3546 "C:\Program Files (x86)\Microchip\xc8\v2.00\pic\include\pic16f887.h"
  1490                           EECON2 equ 018Dh ;# 
  1491  018D                     # 54 "C:\Program Files (x86)\Microchip\xc8\v2.00\pic\include\pic16f887.h"
  1492                           INDF equ 00h ;# 
  1493  0000                     # 61 "C:\Program Files (x86)\Microchip\xc8\v2.00\pic\include\pic16f887.h"
  1494                           TMR0 equ 01h ;# 
  1495  0001                     # 68 "C:\Program Files (x86)\Microchip\xc8\v2.00\pic\include\pic16f887.h"
  1496                           PCL equ 02h ;# 
  1497  0002                     # 75 "C:\Program Files (x86)\Microchip\xc8\v2.00\pic\include\pic16f887.h"
  1498                           STATUS equ 03h ;# 
  1499  0003                     # 161 "C:\Program Files (x86)\Microchip\xc8\v2.00\pic\include\pic16f887.h"
  1500                           FSR equ 04h ;# 
  1501  0004                     # 168 "C:\Program Files (x86)\Microchip\xc8\v2.00\pic\include\pic16f887.h"
  1502                           PORTA equ 05h ;# 
  1503  0005                     # 230 "C:\Program Files (x86)\Microchip\xc8\v2.00\pic\include\pic16f887.h"
  1504                           PORTB equ 06h ;# 
  1505  0006                     # 292 "C:\Program Files (x86)\Microchip\xc8\v2.00\pic\include\pic16f887.h"
  1506                           PORTC equ 07h ;# 
  1507  0007                     # 354 "C:\Program Files (x86)\Microchip\xc8\v2.00\pic\include\pic16f887.h"
  1508                           PORTD equ 08h ;# 
  1509  0008                     # 416 "C:\Program Files (x86)\Microchip\xc8\v2.00\pic\include\pic16f887.h"
  1510                           PORTE equ 09h ;# 
  1511  0009                     # 454 "C:\Program Files (x86)\Microchip\xc8\v2.00\pic\include\pic16f887.h"
  1512                           PCLATH equ 0Ah ;# 
  1513  000A                     # 461 "C:\Program Files (x86)\Microchip\xc8\v2.00\pic\include\pic16f887.h"
  1514                           INTCON equ 0Bh ;# 
  1515  000B                     # 539 "C:\Program Files (x86)\Microchip\xc8\v2.00\pic\include\pic16f887.h"
  1516                           PIR1 equ 0Ch ;# 
  1517  000C                     # 595 "C:\Program Files (x86)\Microchip\xc8\v2.00\pic\include\pic16f887.h"
  1518                           PIR2 equ 0Dh ;# 
  1519  000D                     # 652 "C:\Program Files (x86)\Microchip\xc8\v2.00\pic\include\pic16f887.h"
  1520                           TMR1 equ 0Eh ;# 
  1521  000E                     # 659 "C:\Program Files (x86)\Microchip\xc8\v2.00\pic\include\pic16f887.h"
  1522                           TMR1L equ 0Eh ;# 
  1523  000E                     # 666 "C:\Program Files (x86)\Microchip\xc8\v2.00\pic\include\pic16f887.h"
  1524                           TMR1H equ 0Fh ;# 
  1525  000F                     # 673 "C:\Program Files (x86)\Microchip\xc8\v2.00\pic\include\pic16f887.h"
  1526                           T1CON equ 010h ;# 
  1527  0010                     # 767 "C:\Program Files (x86)\Microchip\xc8\v2.00\pic\include\pic16f887.h"
  1528                           TMR2 equ 011h ;# 
  1529  0011                     # 774 "C:\Program Files (x86)\Microchip\xc8\v2.00\pic\include\pic16f887.h"
  1530                           T2CON equ 012h ;# 
  1531  0012                     # 845 "C:\Program Files (x86)\Microchip\xc8\v2.00\pic\include\pic16f887.h"
  1532                           SSPBUF equ 013h ;# 
  1533  0013                     # 852 "C:\Program Files (x86)\Microchip\xc8\v2.00\pic\include\pic16f887.h"
  1534                           SSPCON equ 014h ;# 
  1535  0014                     # 922 "C:\Program Files (x86)\Microchip\xc8\v2.00\pic\include\pic16f887.h"
  1536                           CCPR1 equ 015h ;# 
  1537  0015                     # 929 "C:\Program Files (x86)\Microchip\xc8\v2.00\pic\include\pic16f887.h"
  1538                           CCPR1L equ 015h ;# 
  1539  0015                     # 936 "C:\Program Files (x86)\Microchip\xc8\v2.00\pic\include\pic16f887.h"
  1540                           CCPR1H equ 016h ;# 
  1541  0016                     # 943 "C:\Program Files (x86)\Microchip\xc8\v2.00\pic\include\pic16f887.h"
  1542                           CCP1CON equ 017h ;# 
  1543  0017                     # 1040 "C:\Program Files (x86)\Microchip\xc8\v2.00\pic\include\pic16f887.h"
  1544                           RCSTA equ 018h ;# 
  1545  0018                     # 1135 "C:\Program Files (x86)\Microchip\xc8\v2.00\pic\include\pic16f887.h"
  1546                           TXREG equ 019h ;# 
  1547  0019                     # 1142 "C:\Program Files (x86)\Microchip\xc8\v2.00\pic\include\pic16f887.h"
  1548                           RCREG equ 01Ah ;# 
  1549  001A                     # 1149 "C:\Program Files (x86)\Microchip\xc8\v2.00\pic\include\pic16f887.h"
  1550                           CCPR2 equ 01Bh ;# 
  1551  001B                     # 1156 "C:\Program Files (x86)\Microchip\xc8\v2.00\pic\include\pic16f887.h"
  1552                           CCPR2L equ 01Bh ;# 
  1553  001B                     # 1163 "C:\Program Files (x86)\Microchip\xc8\v2.00\pic\include\pic16f887.h"
  1554                           CCPR2H equ 01Ch ;# 
  1555  001C                     # 1170 "C:\Program Files (x86)\Microchip\xc8\v2.00\pic\include\pic16f887.h"
  1556                           CCP2CON equ 01Dh ;# 
  1557  001D                     # 1240 "C:\Program Files (x86)\Microchip\xc8\v2.00\pic\include\pic16f887.h"
  1558                           ADRESH equ 01Eh ;# 
  1559  001E                     # 1247 "C:\Program Files (x86)\Microchip\xc8\v2.00\pic\include\pic16f887.h"
  1560                           ADCON0 equ 01Fh ;# 
  1561  001F                     # 1348 "C:\Program Files (x86)\Microchip\xc8\v2.00\pic\include\pic16f887.h"
  1562                           OPTION_REG equ 081h ;# 
  1563  0081                     # 1418 "C:\Program Files (x86)\Microchip\xc8\v2.00\pic\include\pic16f887.h"
  1564                           TRISA equ 085h ;# 
  1565  0085                     # 1480 "C:\Program Files (x86)\Microchip\xc8\v2.00\pic\include\pic16f887.h"
  1566                           TRISB equ 086h ;# 
  1567  0086                     # 1542 "C:\Program Files (x86)\Microchip\xc8\v2.00\pic\include\pic16f887.h"
  1568                           TRISC equ 087h ;# 
  1569  0087                     # 1604 "C:\Program Files (x86)\Microchip\xc8\v2.00\pic\include\pic16f887.h"
  1570                           TRISD equ 088h ;# 
  1571  0088                     # 1666 "C:\Program Files (x86)\Microchip\xc8\v2.00\pic\include\pic16f887.h"
  1572                           TRISE equ 089h ;# 
  1573  0089                     # 1704 "C:\Program Files (x86)\Microchip\xc8\v2.00\pic\include\pic16f887.h"
  1574                           PIE1 equ 08Ch ;# 
  1575  008C                     # 1760 "C:\Program Files (x86)\Microchip\xc8\v2.00\pic\include\pic16f887.h"
  1576                           PIE2 equ 08Dh ;# 
  1577  008D                     # 1817 "C:\Program Files (x86)\Microchip\xc8\v2.00\pic\include\pic16f887.h"
  1578                           PCON equ 08Eh ;# 
  1579  008E                     # 1864 "C:\Program Files (x86)\Microchip\xc8\v2.00\pic\include\pic16f887.h"
  1580                           OSCCON equ 08Fh ;# 
  1581  008F                     # 1929 "C:\Program Files (x86)\Microchip\xc8\v2.00\pic\include\pic16f887.h"
  1582                           OSCTUNE equ 090h ;# 
  1583  0090                     # 1981 "C:\Program Files (x86)\Microchip\xc8\v2.00\pic\include\pic16f887.h"
  1584                           SSPCON2 equ 091h ;# 
  1585  0091                     # 2043 "C:\Program Files (x86)\Microchip\xc8\v2.00\pic\include\pic16f887.h"
  1586                           PR2 equ 092h ;# 
  1587  0092                     # 2050 "C:\Program Files (x86)\Microchip\xc8\v2.00\pic\include\pic16f887.h"
  1588                           SSPADD equ 093h ;# 
  1589  0093                     # 2057 "C:\Program Files (x86)\Microchip\xc8\v2.00\pic\include\pic16f887.h"
  1590                           SSPMSK equ 093h ;# 
  1591  0093                     # 2062 "C:\Program Files (x86)\Microchip\xc8\v2.00\pic\include\pic16f887.h"
  1592                           MSK equ 093h ;# 
  1593  0093                     # 2179 "C:\Program Files (x86)\Microchip\xc8\v2.00\pic\include\pic16f887.h"
  1594                           SSPSTAT equ 094h ;# 
  1595  0094                     # 2348 "C:\Program Files (x86)\Microchip\xc8\v2.00\pic\include\pic16f887.h"
  1596                           WPUB equ 095h ;# 
  1597  0095                     # 2418 "C:\Program Files (x86)\Microchip\xc8\v2.00\pic\include\pic16f887.h"
  1598                           IOCB equ 096h ;# 
  1599  0096                     # 2488 "C:\Program Files (x86)\Microchip\xc8\v2.00\pic\include\pic16f887.h"
  1600                           VRCON equ 097h ;# 
  1601  0097                     # 2558 "C:\Program Files (x86)\Microchip\xc8\v2.00\pic\include\pic16f887.h"
  1602                           TXSTA equ 098h ;# 
  1603  0098                     # 2644 "C:\Program Files (x86)\Microchip\xc8\v2.00\pic\include\pic16f887.h"
  1604                           SPBRG equ 099h ;# 
  1605  0099                     # 2706 "C:\Program Files (x86)\Microchip\xc8\v2.00\pic\include\pic16f887.h"
  1606                           SPBRGH equ 09Ah ;# 
  1607  009A                     # 2776 "C:\Program Files (x86)\Microchip\xc8\v2.00\pic\include\pic16f887.h"
  1608                           PWM1CON equ 09Bh ;# 
  1609  009B                     # 2846 "C:\Program Files (x86)\Microchip\xc8\v2.00\pic\include\pic16f887.h"
  1610                           ECCPAS equ 09Ch ;# 
  1611  009C                     # 2928 "C:\Program Files (x86)\Microchip\xc8\v2.00\pic\include\pic16f887.h"
  1612                           PSTRCON equ 09Dh ;# 
  1613  009D                     # 2972 "C:\Program Files (x86)\Microchip\xc8\v2.00\pic\include\pic16f887.h"
  1614                           ADRESL equ 09Eh ;# 
  1615  009E                     # 2979 "C:\Program Files (x86)\Microchip\xc8\v2.00\pic\include\pic16f887.h"
  1616                           ADCON1 equ 09Fh ;# 
  1617  009F                     # 3013 "C:\Program Files (x86)\Microchip\xc8\v2.00\pic\include\pic16f887.h"
  1618                           WDTCON equ 0105h ;# 
  1619  0105                     # 3066 "C:\Program Files (x86)\Microchip\xc8\v2.00\pic\include\pic16f887.h"
  1620                           CM1CON0 equ 0107h ;# 
  1621  0107                     # 3131 "C:\Program Files (x86)\Microchip\xc8\v2.00\pic\include\pic16f887.h"
  1622                           CM2CON0 equ 0108h ;# 
  1623  0108                     # 3196 "C:\Program Files (x86)\Microchip\xc8\v2.00\pic\include\pic16f887.h"
  1624                           CM2CON1 equ 0109h ;# 
  1625  0109                     # 3247 "C:\Program Files (x86)\Microchip\xc8\v2.00\pic\include\pic16f887.h"
  1626                           EEDATA equ 010Ch ;# 
  1627  010C                     # 3252 "C:\Program Files (x86)\Microchip\xc8\v2.00\pic\include\pic16f887.h"
  1628                           EEDAT equ 010Ch ;# 
  1629  010C                     # 3259 "C:\Program Files (x86)\Microchip\xc8\v2.00\pic\include\pic16f887.h"
  1630                           EEADR equ 010Dh ;# 
  1631  010D                     # 3266 "C:\Program Files (x86)\Microchip\xc8\v2.00\pic\include\pic16f887.h"
  1632                           EEDATH equ 010Eh ;# 
  1633  010E                     # 3273 "C:\Program Files (x86)\Microchip\xc8\v2.00\pic\include\pic16f887.h"
  1634                           EEADRH equ 010Fh ;# 
  1635  010F                     # 3280 "C:\Program Files (x86)\Microchip\xc8\v2.00\pic\include\pic16f887.h"
  1636                           SRCON equ 0185h ;# 
  1637  0185                     # 3337 "C:\Program Files (x86)\Microchip\xc8\v2.00\pic\include\pic16f887.h"
  1638                           BAUDCTL equ 0187h ;# 
  1639  0187                     # 3389 "C:\Program Files (x86)\Microchip\xc8\v2.00\pic\include\pic16f887.h"
  1640                           ANSEL equ 0188h ;# 
  1641  0188                     # 3451 "C:\Program Files (x86)\Microchip\xc8\v2.00\pic\include\pic16f887.h"
  1642                           ANSELH equ 0189h ;# 
  1643  0189                     # 3501 "C:\Program Files (x86)\Microchip\xc8\v2.00\pic\include\pic16f887.h"
  1644                           EECON1 equ 018Ch ;# 
  1645  018C                     # 3546 "C:\Program Files (x86)\Microchip\xc8\v2.00\pic\include\pic16f887.h"
  1646                           EECON2 equ 018Dh ;# 
  1647  018D                     	FNCALL	_main,_T0_init
  1648                           	FNCALL	_main,_T0_start
  1649                           	FNCALL	_main,_T0_status
  1650                           	FNCALL	_main,___lwmod
  1651                           	FNCALL	_main,_lcd_init
  1652                           	FNCALL	_main,_lcd_num
  1653                           	FNCALL	_main,_lcd_print
  1654                           	FNCALL	_main,_prs_init
  1655                           	FNCALL	_lcd_print,_lcd_dataReg
  1656                           	FNCALL	_lcd_print,_lcd_lincol
  1657                           	FNCALL	_lcd_num,___awdiv
  1658                           	FNCALL	_lcd_num,___awmod
  1659                           	FNCALL	_lcd_num,_lcd_dataReg
  1660                           	FNCALL	_lcd_num,_lcd_lincol
  1661                           	FNCALL	_lcd_lincol,_lcd_instReg
  1662                           	FNCALL	_lcd_init,_delay_ms
  1663                           	FNCALL	_lcd_init,_lcd_instReg
  1664                           	FNROOT	_main
  1665                           	FNCALL	_ilsr,_T0_int
  1666                           	FNCALL	_ilsr,_T1_int
  1667                           	FNCALL	_ilsr,_T2_int
  1668                           	FNCALL	intlevel1,_ilsr
  1669                           	global	intlevel1
  1670                           	FNROOT	intlevel1
  1671                           	global	_T0count
  1672                           	global	_T2count
  1673                           	global	_T1count
  1674                           	global	_t_sensor
  1675                           	global	_PIR1bits
  1676                           _PIR1bits	set	0xC
  1677  000C                     	global	_T2CONbits
  1678                           _T2CONbits	set	0x12
  1679  0012                     	global	_TMR2
  1680                           _TMR2	set	0x11
  1681  0011                     	global	_TMR1L
  1682                           _TMR1L	set	0xE
  1683  000E                     	global	_TMR1H
  1684                           _TMR1H	set	0xF
  1685  000F                     	global	_T1CONbits
  1686                           _T1CONbits	set	0x10
  1687  0010                     	global	_TMR0
  1688                           _TMR0	set	0x1
  1689  0001                     	global	_INTCONbits
  1690                           _INTCONbits	set	0xB
  1691  000B                     	global	_PORTD
  1692                           _PORTD	set	0x8
  1693  0008                     	global	_PORTDbits
  1694                           _PORTDbits	set	0x8
  1695  0008                     	global	_PORTCbits
  1696                           _PORTCbits	set	0x7
  1697  0007                     	global	_PR2
  1698                           _PR2	set	0x92
  1699  0092                     	global	_PIE1bits
  1700                           _PIE1bits	set	0x8C
  1701  008C                     	global	_OPTION_REGbits
  1702                           _OPTION_REGbits	set	0x81
  1703  0081                     	global	_TRISCbits
  1704                           _TRISCbits	set	0x87
  1705  0087                     	global	_TRISDbits
  1706                           _TRISDbits	set	0x88
  1707  0088                     psect	strings,class=STRING,delta=2,noexec
  1708                           global __pstrings
  1709                           __pstrings:
  1710  0482                     stringtab:
  1711  0482                     	global    __stringtab
  1712                           __stringtab:
  1713  0482                     ;	String table - string pointers are 1 byte each
  1714                           stringcode:stringdir:
  1715  0482                     movlw high(stringdir)
      + 0482                     stringdir:	
  1716  0482  3004               movwf pclath
  1717  0483  008A               movf fsr,w
  1718  0484  0804               incf fsr
  1719  0485  0A84               	addwf pc
  1720  0486  0782               	global __stringbase
  1721                           __stringbase:
  1722  0487                     	retlw	0
  1723  0487  3400               psect	strings
  1724                           	global    __end_of__stringtab
  1725                           __end_of__stringtab:
  1726  0488                     	
  1727                           STR_1:	
  1728  0488                     	retlw	80	;'P'
  1729  0488  3450               	retlw	114	;'r'
  1730  0489  3472               	retlw	111	;'o'
  1731  048A  346F               	retlw	110	;'n'
  1732  048B  346E               	retlw	116	;'t'
  1733  048C  3474               	retlw	111	;'o'
  1734  048D  346F               	retlw	0
  1735  048E  3400               psect	strings
  1736                           ; #config settings
  1737                           global __CFG_FOSC$INTRC_NOCLKOUT
  1738                           __CFG_FOSC$INTRC_NOCLKOUT equ 0x0
  1739  0000                     global __CFG_WDTE$OFF
  1740                           __CFG_WDTE$OFF equ 0x0
  1741  0000                     global __CFG_PWRTE$OFF
  1742                           __CFG_PWRTE$OFF equ 0x0
  1743  0000                     global __CFG_MCLRE$OFF
  1744                           __CFG_MCLRE$OFF equ 0x0
  1745  0000                     global __CFG_CP$OFF
  1746                           __CFG_CP$OFF equ 0x0
  1747  0000                     global __CFG_CPD$OFF
  1748                           __CFG_CPD$OFF equ 0x0
  1749  0000                     global __CFG_BOREN$OFF
  1750                           __CFG_BOREN$OFF equ 0x0
  1751  0000                     global __CFG_IESO$OFF
  1752                           __CFG_IESO$OFF equ 0x0
  1753  0000                     global __CFG_FCMEN$OFF
  1754                           __CFG_FCMEN$OFF equ 0x0
  1755  0000                     global __CFG_LVP$OFF
  1756                           __CFG_LVP$OFF equ 0x0
  1757  0000                     global __CFG_BOR4V$BOR40V
  1758                           __CFG_BOR4V$BOR40V equ 0x0
  1759  0000                     global __CFG_WRT$OFF
  1760                           __CFG_WRT$OFF equ 0x0
  1761  0000                     	file	"C:\Users\21193442\AppData\Local\Temp\sd34."
  1762                           	line	#
  1763                           psect cinit,class=CODE,delta=2
  1764                           global start_initialization
  1765                           start_initialization:
  1766  000F                     
  1767                           global __initialization
  1768                           __initialization:
  1769  000F                     psect	bssCOMMON,class=COMMON,space=1,noexec
  1770                           global __pbssCOMMON
  1771                           __pbssCOMMON:
  1772  007A                     _T0count:
  1773  007A                            ds      2
  1774  007A                     
  1775                           psect	bssBANK0,class=BANK0,space=1,noexec
  1776                           global __pbssBANK0
  1777                           __pbssBANK0:
  1778  0033                     _T2count:
  1779  0033                            ds      2
  1780  0033                     
  1781                           _T1count:
  1782  0035                            ds      2
  1783  0035                     
  1784                           _t_sensor:
  1785  0037                            ds      2
  1786  0037                     
  1787                           _modo:
  1788  0039                            ds      2
  1789  0039                     
  1790                           	file	"C:\Users\21193442\AppData\Local\Temp\sd34."
  1791                           	line	#
  1792                           ; Clear objects allocated to COMMON
  1793                           psect cinit,class=CODE,delta=2,merge=1
  1794                           	clrf	((__pbssCOMMON)+0)&07Fh
  1795  000F  01FA               	clrf	((__pbssCOMMON)+1)&07Fh
  1796  0010  01FB               ; Clear objects allocated to BANK0
  1797                           psect cinit,class=CODE,delta=2,merge=1
  1798                           	bcf	status, 5	;RP0=0, select bank0
  1799  0011  1283               	bcf	status, 6	;RP1=0, select bank0
  1800  0012  1303               	clrf	((__pbssBANK0)+0)&07Fh
  1801  0013  01B3               	clrf	((__pbssBANK0)+1)&07Fh
  1802  0014  01B4               	clrf	((__pbssBANK0)+2)&07Fh
  1803  0015  01B5               	clrf	((__pbssBANK0)+3)&07Fh
  1804  0016  01B6               	clrf	((__pbssBANK0)+4)&07Fh
  1805  0017  01B7               	clrf	((__pbssBANK0)+5)&07Fh
  1806  0018  01B8               	clrf	((__pbssBANK0)+6)&07Fh
  1807  0019  01B9               	clrf	((__pbssBANK0)+7)&07Fh
  1808  001A  01BA               psect cinit,class=CODE,delta=2,merge=1
  1809                           global end_of_initialization,__end_of__initialization
  1810                           
  1811                           ;End of C runtime variable initialization code
  1812                           
  1813                           end_of_initialization:
  1814  001B                     __end_of__initialization:
  1815  001B                     clrf status
  1816  001B  0183               ljmp _main	;jump to C main() function
  1817  001C  120A  118A  290D   psect	cstackCOMMON,class=COMMON,space=1,noexec
  1818                           global __pcstackCOMMON
  1819                           __pcstackCOMMON:
  1820  0070                     ?_lcd_init:	; 1 bytes @ 0x0
  1821  0070                     ?_prs_init:	; 1 bytes @ 0x0
  1822  0070                     ?_T0_init:	; 1 bytes @ 0x0
  1823  0070                     ?_main:	; 1 bytes @ 0x0
  1824  0070                     ?_lcd_instReg:	; 1 bytes @ 0x0
  1825  0070                     ?_lcd_dataReg:	; 1 bytes @ 0x0
  1826  0070                     ?_T0_int:	; 1 bytes @ 0x0
  1827  0070                     ??_T0_int:	; 1 bytes @ 0x0
  1828  0070                     ?_T1_int:	; 1 bytes @ 0x0
  1829  0070                     ??_T1_int:	; 1 bytes @ 0x0
  1830  0070                     ?_T2_int:	; 1 bytes @ 0x0
  1831  0070                     ??_T2_int:	; 1 bytes @ 0x0
  1832  0070                     ?_ilsr:	; 1 bytes @ 0x0
  1833  0070                     ??_ilsr:	; 1 bytes @ 0x0
  1834  0070                     	ds	2
  1835  0070                     ??_prs_init:	; 1 bytes @ 0x2
  1836  0072                     ??_T0_init:	; 1 bytes @ 0x2
  1837  0072                     ?_T0_start:	; 1 bytes @ 0x2
  1838  0072                     ?_delay_ms:	; 1 bytes @ 0x2
  1839  0072                     ??_lcd_instReg:	; 1 bytes @ 0x2
  1840  0072                     ??_lcd_dataReg:	; 1 bytes @ 0x2
  1841  0072                     	global	?_T0_status
  1842                           ?_T0_status:	; 2 bytes @ 0x2
  1843  0072                     	global	?___awdiv
  1844                           ?___awdiv:	; 2 bytes @ 0x2
  1845  0072                     	global	?___awmod
  1846                           ?___awmod:	; 2 bytes @ 0x2
  1847  0072                     	global	?___lwmod
  1848                           ?___lwmod:	; 2 bytes @ 0x2
  1849  0072                     	global	delay_ms@t
  1850                           delay_ms@t:	; 2 bytes @ 0x2
  1851  0072                     	global	T0_start@c
  1852                           T0_start@c:	; 2 bytes @ 0x2
  1853  0072                     	global	___awdiv@divisor
  1854                           ___awdiv@divisor:	; 2 bytes @ 0x2
  1855  0072                     	global	___awmod@divisor
  1856                           ___awmod@divisor:	; 2 bytes @ 0x2
  1857  0072                     	global	___lwmod@divisor
  1858                           ___lwmod@divisor:	; 2 bytes @ 0x2
  1859  0072                     	ds	2
  1860  0072                     ??_T0_start:	; 1 bytes @ 0x4
  1861  0074                     ??_T0_status:	; 1 bytes @ 0x4
  1862  0074                     ??_delay_ms:	; 1 bytes @ 0x4
  1863  0074                     	global	lcd_instReg@i
  1864                           lcd_instReg@i:	; 1 bytes @ 0x4
  1865  0074                     	global	lcd_dataReg@d
  1866                           lcd_dataReg@d:	; 1 bytes @ 0x4
  1867  0074                     	global	___awdiv@dividend
  1868                           ___awdiv@dividend:	; 2 bytes @ 0x4
  1869  0074                     	global	___awmod@dividend
  1870                           ___awmod@dividend:	; 2 bytes @ 0x4
  1871  0074                     	global	___lwmod@dividend
  1872                           ___lwmod@dividend:	; 2 bytes @ 0x4
  1873  0074                     	ds	1
  1874  0074                     ??_lcd_init:	; 1 bytes @ 0x5
  1875  0075                     ?_lcd_lincol:	; 1 bytes @ 0x5
  1876  0075                     	global	lcd_lincol@col
  1877                           lcd_lincol@col:	; 1 bytes @ 0x5
  1878  0075                     	ds	1
  1879  0075                     ??_lcd_lincol:	; 1 bytes @ 0x6
  1880  0076                     ??___awdiv:	; 1 bytes @ 0x6
  1881  0076                     ??___awmod:	; 1 bytes @ 0x6
  1882  0076                     ??___lwmod:	; 1 bytes @ 0x6
  1883  0076                     	ds	1
  1884  0076                     	global	lcd_lincol@lin
  1885                           lcd_lincol@lin:	; 1 bytes @ 0x7
  1886  0077                     	global	___awmod@counter
  1887                           ___awmod@counter:	; 1 bytes @ 0x7
  1888  0077                     	global	___lwmod@counter
  1889                           ___lwmod@counter:	; 1 bytes @ 0x7
  1890  0077                     	ds	1
  1891  0077                     ?_lcd_print:	; 1 bytes @ 0x8
  1892  0078                     	global	lcd_print@col
  1893                           lcd_print@col:	; 1 bytes @ 0x8
  1894  0078                     	global	___awmod@sign
  1895                           ___awmod@sign:	; 1 bytes @ 0x8
  1896  0078                     	ds	1
  1897  0078                     	global	lcd_print@str
  1898                           lcd_print@str:	; 1 bytes @ 0x9
  1899  0079                     	ds	1
  1900  0079                     psect	cstackBANK0,class=BANK0,space=1,noexec
  1901                           global __pcstackBANK0
  1902                           __pcstackBANK0:
  1903  0020                     ??_lcd_print:	; 1 bytes @ 0x0
  1904  0020                     	global	___awdiv@counter
  1905                           ___awdiv@counter:	; 1 bytes @ 0x0
  1906  0020                     	ds	1
  1907  0020                     	global	lcd_print@pos
  1908                           lcd_print@pos:	; 1 bytes @ 0x1
  1909  0021                     	global	___awdiv@sign
  1910                           ___awdiv@sign:	; 1 bytes @ 0x1
  1911  0021                     	ds	1
  1912  0021                     	global	lcd_print@lin
  1913                           lcd_print@lin:	; 1 bytes @ 0x2
  1914  0022                     	global	___awdiv@quotient
  1915                           ___awdiv@quotient:	; 2 bytes @ 0x2
  1916  0022                     	ds	2
  1917  0022                     ?_lcd_num:	; 1 bytes @ 0x4
  1918  0024                     	global	lcd_num@col
  1919                           lcd_num@col:	; 1 bytes @ 0x4
  1920  0024                     	ds	1
  1921  0024                     	global	lcd_num@num
  1922                           lcd_num@num:	; 2 bytes @ 0x5
  1923  0025                     	ds	2
  1924  0025                     	global	lcd_num@tam
  1925                           lcd_num@tam:	; 1 bytes @ 0x7
  1926  0027                     	ds	1
  1927  0027                     ??_lcd_num:	; 1 bytes @ 0x8
  1928  0028                     	ds	3
  1929  0028                     	global	lcd_num@lin
  1930                           lcd_num@lin:	; 1 bytes @ 0xB
  1931  002B                     	ds	1
  1932  002B                     	global	lcd_num@size
  1933                           lcd_num@size:	; 1 bytes @ 0xC
  1934  002C                     	ds	1
  1935  002C                     	global	lcd_num@sinal
  1936                           lcd_num@sinal:	; 1 bytes @ 0xD
  1937  002D                     	ds	1
  1938  002D                     	global	lcd_num@div
  1939                           lcd_num@div:	; 2 bytes @ 0xE
  1940  002E                     	ds	2
  1941  002E                     ??_main:	; 1 bytes @ 0x10
  1942  0030                     	ds	1
  1943  0030                     	global	main@seg
  1944                           main@seg:	; 2 bytes @ 0x11
  1945  0031                     	ds	2
  1946  0031                     ;!
  1947                           ;!Data Sizes:
  1948                           ;!    Strings     7
  1949                           ;!    Constant    0
  1950                           ;!    Data        0
  1951                           ;!    BSS         10
  1952                           ;!    Persistent  0
  1953                           ;!    Stack       0
  1954                           ;!
  1955                           ;!Auto Spaces:
  1956                           ;!    Space          Size  Autos    Used
  1957                           ;!    COMMON           14     10      12
  1958                           ;!    BANK0            80     19      27
  1959                           ;!    BANK1            80      0       0
  1960                           ;!    BANK3            96      0       0
  1961                           ;!    BANK2            96      0       0
  1962                           
  1963                           ;!
  1964                           ;!Pointer List with Targets:
  1965                           ;!
  1966                           ;!    lcd_print@str	PTR const unsigned char  size(1) Largest target is 7
  1967                           ;!		 -> STR_1(CODE[7]), 
  1968                           ;!
  1969                           
  1970                           
  1971                           ;!
  1972                           ;!Critical Paths under _main in COMMON
  1973                           ;!
  1974                           ;!    _main->_lcd_print
  1975                           ;!    _lcd_print->_lcd_lincol
  1976                           ;!    _lcd_num->___awmod
  1977                           ;!    _lcd_lincol->_lcd_instReg
  1978                           ;!    _lcd_init->_delay_ms
  1979                           ;!    _lcd_init->_lcd_instReg
  1980                           ;!
  1981                           ;!Critical Paths under _ilsr in COMMON
  1982                           ;!
  1983                           ;!    None.
  1984                           ;!
  1985                           ;!Critical Paths under _main in BANK0
  1986                           ;!
  1987                           ;!    _main->_lcd_num
  1988                           ;!    _lcd_num->___awdiv
  1989                           ;!
  1990                           ;!Critical Paths under _ilsr in BANK0
  1991                           ;!
  1992                           ;!    None.
  1993                           ;!
  1994                           ;!Critical Paths under _main in BANK1
  1995                           ;!
  1996                           ;!    None.
  1997                           ;!
  1998                           ;!Critical Paths under _ilsr in BANK1
  1999                           ;!
  2000                           ;!    None.
  2001                           ;!
  2002                           ;!Critical Paths under _main in BANK3
  2003                           ;!
  2004                           ;!    None.
  2005                           ;!
  2006                           ;!Critical Paths under _ilsr in BANK3
  2007                           ;!
  2008                           ;!    None.
  2009                           ;!
  2010                           ;!Critical Paths under _main in BANK2
  2011                           ;!
  2012                           ;!    None.
  2013                           ;!
  2014                           ;!Critical Paths under _ilsr in BANK2
  2015                           ;!
  2016                           ;!    None.
  2017                           
  2018 ;;
  2019 ;;Main: autosize = 0, tempsize = 1, incstack = 0, save=0
  2020 ;;
  2021                           
  2022                           ;!
  2023                           ;!Call Graph Tables:
  2024                           ;!
  2025                           ;! ---------------------------------------------------------------------------------
  2026                           ;! (Depth) Function   	        Calls       Base Space   Used Autos Params    Refs
  2027                           ;! ---------------------------------------------------------------------------------
  2028                           ;! (0) _main                                                 3     3      0    5018
  2029                           ;!                                             16 BANK0      3     3      0
  2030                           ;!                            _T0_init
  2031                           ;!                           _T0_start
  2032                           ;!                          _T0_status
  2033                           ;!                            ___lwmod
  2034                           ;!                           _lcd_init
  2035                           ;!                            _lcd_num
  2036                           ;!                          _lcd_print
  2037                           ;!                           _prs_init
  2038                           ;! ---------------------------------------------------------------------------------
  2039                           ;! (1) _prs_init                                             0     0      0       0
  2040                           ;! ---------------------------------------------------------------------------------
  2041                           ;! (1) _lcd_print                                            5     3      2     760
  2042                           ;!                                              8 COMMON     2     0      2
  2043                           ;!                                              0 BANK0      3     3      0
  2044                           ;!                        _lcd_dataReg
  2045                           ;!                         _lcd_lincol
  2046                           ;! ---------------------------------------------------------------------------------
  2047                           ;! (1) _lcd_num                                             12     8      4    3216
  2048                           ;!                                              4 BANK0     12     8      4
  2049                           ;!                            ___awdiv
  2050                           ;!                            ___awmod
  2051                           ;!                        _lcd_dataReg
  2052                           ;!                         _lcd_lincol
  2053                           ;! ---------------------------------------------------------------------------------
  2054                           ;! (2) _lcd_lincol                                           3     2      1     372
  2055                           ;!                                              5 COMMON     3     2      1
  2056                           ;!                        _lcd_instReg
  2057                           ;! ---------------------------------------------------------------------------------
  2058                           ;! (2) _lcd_dataReg                                          3     3      0      44
  2059                           ;!                                              2 COMMON     3     3      0
  2060                           ;! ---------------------------------------------------------------------------------
  2061                           ;! (2) ___awmod                                              7     3      4     448
  2062                           ;!                                              2 COMMON     7     3      4
  2063                           ;! ---------------------------------------------------------------------------------
  2064                           ;! (2) ___awdiv                                              9     5      4    1165
  2065                           ;!                                              2 COMMON     5     1      4
  2066                           ;!                                              0 BANK0      4     4      0
  2067                           ;! ---------------------------------------------------------------------------------
  2068                           ;! (1) _lcd_init                                             0     0      0     427
  2069                           ;!                           _delay_ms
  2070                           ;!                        _lcd_instReg
  2071                           ;! ---------------------------------------------------------------------------------
  2072                           ;! (3) _lcd_instReg                                          3     3      0     176
  2073                           ;!                                              2 COMMON     3     3      0
  2074                           ;! ---------------------------------------------------------------------------------
  2075                           ;! (2) _delay_ms                                             3     1      2     251
  2076                           ;!                                              2 COMMON     3     1      2
  2077                           ;! ---------------------------------------------------------------------------------
  2078                           ;! (1) ___lwmod                                              6     2      4     311
  2079                           ;!                                              2 COMMON     6     2      4
  2080                           ;! ---------------------------------------------------------------------------------
  2081                           ;! (1) _T0_status                                            2     0      2       0
  2082                           ;!                                              2 COMMON     2     0      2
  2083                           ;! ---------------------------------------------------------------------------------
  2084                           ;! (1) _T0_start                                             2     0      2     174
  2085                           ;!                                              2 COMMON     2     0      2
  2086                           ;! ---------------------------------------------------------------------------------
  2087                           ;! (1) _T0_init                                              0     0      0       0
  2088                           ;! ---------------------------------------------------------------------------------
  2089                           ;! Estimated maximum stack depth 3
  2090                           ;! ---------------------------------------------------------------------------------
  2091                           ;! (Depth) Function   	        Calls       Base Space   Used Autos Params    Refs
  2092                           ;! ---------------------------------------------------------------------------------
  2093                           ;! (4) _ilsr                                                 2     2      0       0
  2094                           ;!                                              0 COMMON     2     2      0
  2095                           ;!                             _T0_int
  2096                           ;!                             _T1_int
  2097                           ;!                             _T2_int
  2098                           ;! ---------------------------------------------------------------------------------
  2099                           ;! (5) _T2_int                                               0     0      0       0
  2100                           ;! ---------------------------------------------------------------------------------
  2101                           ;! (5) _T1_int                                               0     0      0       0
  2102                           ;! ---------------------------------------------------------------------------------
  2103                           ;! (5) _T0_int                                               0     0      0       0
  2104                           ;! ---------------------------------------------------------------------------------
  2105                           ;! Estimated maximum stack depth 5
  2106                           ;! ---------------------------------------------------------------------------------
  2107                           ;!
  2108                           ;! Call Graph Graphs:
  2109                           ;!
  2110                           ;! _main (ROOT)
  2111                           ;!   _T0_init
  2112                           ;!   _T0_start
  2113                           ;!   _T0_status
  2114                           ;!   ___lwmod
  2115                           ;!   _lcd_init
  2116                           ;!     _delay_ms
  2117                           ;!     _lcd_instReg
  2118                           ;!   _lcd_num
  2119                           ;!     ___awdiv
  2120                           ;!     ___awmod
  2121                           ;!     _lcd_dataReg
  2122                           ;!     _lcd_lincol
  2123                           ;!       _lcd_instReg
  2124                           ;!   _lcd_print
  2125                           ;!     _lcd_dataReg
  2126                           ;!     _lcd_lincol
  2127                           ;!       _lcd_instReg
  2128                           ;!   _prs_init
  2129                           ;!
  2130                           ;! _ilsr (ROOT)
  2131                           ;!   _T0_int
  2132                           ;!   _T1_int
  2133                           ;!   _T2_int
  2134                           ;!
  2135                           
  2136                           ;! Address spaces:
  2137                           
  2138                           ;!Name               Size   Autos  Total    Cost      Usage
  2139                           ;!BITCOMMON            E      0       0       0        0.0%
  2140                           ;!EEDATA             100      0       0       0        0.0%
  2141                           ;!NULL                 0      0       0       0        0.0%
  2142                           ;!CODE                 0      0       0       0        0.0%
  2143                           ;!COMMON               E      A       C       1       85.7%
  2144                           ;!BITSFR0              0      0       0       1        0.0%
  2145                           ;!SFR0                 0      0       0       1        0.0%
  2146                           ;!BITSFR1              0      0       0       2        0.0%
  2147                           ;!SFR1                 0      0       0       2        0.0%
  2148                           ;!STACK                0      0       0       2        0.0%
  2149                           ;!ABS                  0      0      27       3        0.0%
  2150                           ;!BITBANK0            50      0       0       4        0.0%
  2151                           ;!BITSFR3              0      0       0       4        0.0%
  2152                           ;!SFR3                 0      0       0       4        0.0%
  2153                           ;!BANK0               50     13      1B       5       33.8%
  2154                           ;!BITSFR2              0      0       0       5        0.0%
  2155                           ;!SFR2                 0      0       0       5        0.0%
  2156                           ;!BITBANK1            50      0       0       6        0.0%
  2157                           ;!BANK1               50      0       0       7        0.0%
  2158                           ;!BITBANK3            60      0       0       8        0.0%
  2159                           ;!BANK3               60      0       0       9        0.0%
  2160                           ;!BITBANK2            60      0       0      10        0.0%
  2161                           ;!BANK2               60      0       0      11        0.0%
  2162                           ;!DATA                 0      0      27      12        0.0%
  2163                           
  2164                           	global	_main
  2165                           
  2166 ;; *************** function _main *****************
  2167 ;; Defined at:
  2168 ;;		line 16 in file "main.c"
  2169 ;; Parameters:    Size  Location     Type
  2170 ;;		None
  2171 ;; Auto vars:     Size  Location     Type
  2172 ;;  seg             2   17[BANK0 ] unsigned int 
  2173 ;; Return value:  Size  Location     Type
  2174 ;;                  1    wreg      void 
  2175 ;; Registers used:
  2176 ;;		wreg, fsr0l, fsr0h, status,2, status,0, btemp+1, pclath, cstack
  2177 ;; Tracked objects:
  2178 ;;		On entry : B00/0
  2179 ;;		On exit  : 0/0
  2180 ;;		Unchanged: 0/0
  2181 ;; Data sizes:     COMMON   BANK0   BANK1   BANK3   BANK2
  2182 ;;      Params:         0       0       0       0       0
  2183 ;;      Locals:         0       2       0       0       0
  2184 ;;      Temps:          0       1       0       0       0
  2185 ;;      Totals:         0       3       0       0       0
  2186 ;;Total ram usage:        3 bytes
  2187 ;; Hardware stack levels required when called:    5
  2188 ;; This function calls:
  2189 ;;		_T0_init
  2190 ;;		_T0_start
  2191 ;;		_T0_status
  2192 ;;		___lwmod
  2193 ;;		_lcd_init
  2194 ;;		_lcd_num
  2195 ;;		_lcd_print
  2196 ;;		_prs_init
  2197 ;; This function is called by:
  2198 ;;		Startup code after reset
  2199 ;; This function uses a non-reentrant model
  2200 ;;
  2201                           psect	maintext,global,class=CODE,delta=2,split=1,group=0
  2202                           	file	"main.c"
  2203                           	line	16
  2204                           global __pmaintext
  2205                           __pmaintext:	;psect for function _main
  2206  010D                     psect	maintext
  2207                           	file	"main.c"
  2208                           	line	16
  2209                           	global	__size_of_main
  2210                           	__size_of_main	equ	__end_of_main-_main
  2211  008B                     	
  2212                           _main:	
  2213  010D                     ;incstack = 0
  2214                           	opt	stack 3
  2215                           ; Regs used in _main: [wreg-fsr0h+status,2+status,0+btemp+1+pclath+cstack]
  2216                           	line	18
  2217                           	
  2218                           l1596:	
  2219  010D                     ;main.c: 18:     unsigned seg = 0;
  2220                           	bcf	status, 5	;RP0=0, select bank0
  2221  010D  1283               	bcf	status, 6	;RP1=0, select bank0
  2222  010E  1303               	clrf	(main@seg)
  2223  010F  01B1               	clrf	(main@seg+1)
  2224  0110  01B2               	line	19
  2225                           	
  2226                           l1598:	
  2227  0111                     ;main.c: 19:     lcd_init();
  2228                           	fcall	_lcd_init
  2229  0111  120A  118A  233A  120A  118A  	line	20
  2230                           	
  2231                           l1600:	
  2232  0116                     ;main.c: 20:     prs_init();
  2233                           	fcall	_prs_init
  2234  0116  120A  118A  248F  120A  118A  	line	21
  2235                           	
  2236                           l1602:	
  2237  011B                     ;main.c: 21:     T0_init();
  2238                           	fcall	_T0_init
  2239  011B  120A  118A  2462  120A  118A  	line	23
  2240                           	
  2241                           l1604:	
  2242  0120                     ;main.c: 23:     T0_start( 1000 );
  2243                           	movlw	0E8h
  2244  0120  30E8               	movwf	(T0_start@c)
  2245  0121  00F2               	movlw	03h
  2246  0122  3003               	movwf	((T0_start@c))+1
  2247  0123  00F3               	fcall	_T0_start
  2248  0124  120A  118A  249A  120A  118A  	line	24
  2249                           	
  2250                           l1606:	
  2251  0129                     ;main.c: 24:     lcd_num(1,0, (int)seg, 2 );
  2252                           	bcf	status, 5	;RP0=0, select bank0
  2253  0129  1283               	bcf	status, 6	;RP1=0, select bank0
  2254  012A  1303               	clrf	(lcd_num@col)
  2255  012B  01A4               	movf	(main@seg+1),w
  2256  012C  0832               	movwf	(lcd_num@num+1)
  2257  012D  00A6               	movf	(main@seg),w
  2258  012E  0831               	movwf	(lcd_num@num)
  2259  012F  00A5               	movlw	low(02h)
  2260  0130  3002               	movwf	(??_main+0)+0
  2261  0131  00B0               	movf	(??_main+0)+0,w
  2262  0132  0830               	movwf	(lcd_num@tam)
  2263  0133  00A7               	movlw	low(01h)
  2264  0134  3001               	fcall	_lcd_num
  2265  0135  120A  118A  201F  120A  118A  	line	26
  2266                           	
  2267                           l1608:	
  2268  013A                     ;main.c: 26:     lcd_print(0, 1, "Pronto" );
  2269                           	clrf	(lcd_print@col)
  2270  013A  01F8               	incf	(lcd_print@col),f
  2271  013B  0AF8               	movlw	(low((((STR_1)-__stringbase)|8000h)))&0ffh
  2272  013C  3001               	bcf	status, 5	;RP0=0, select bank0
  2273  013D  1283               	bcf	status, 6	;RP1=0, select bank0
  2274  013E  1303               	movwf	(??_main+0)+0
  2275  013F  00B0               	movf	(??_main+0)+0,w
  2276  0140  0830               	movwf	(lcd_print@str)
  2277  0141  00F9               	movlw	low(0)
  2278  0142  3000               	fcall	_lcd_print
  2279  0143  120A  118A  2379  120A  118A  	goto	l1610
  2280  0148  2949               	line	28
  2281                           ;main.c: 28:     while(1)
  2282                           	
  2283                           l21:	
  2284  0149                     	line	30
  2285                           	
  2286                           l1610:	
  2287  0149                     ;main.c: 29:     {;main.c: 30:         if( T0_status() == 0 )
  2288                           	fcall	_T0_status
  2289  0149  120A  118A  24A4  120A  118A  	movf	((0+(?_T0_status))),w
  2290  014E  0872               iorwf	((1+(?_T0_status))),w
  2291  014F  0473               	btfss	status,2
  2292  0150  1D03               	goto	u1381
  2293  0151  2953               	goto	u1380
  2294  0152  2954               u1381:
  2295  0153                     	goto	l1616
  2296  0153  2988               u1380:
  2297  0154                     	line	32
  2298                           	
  2299                           l1612:	
  2300  0154                     ;main.c: 31:         {;main.c: 32:             T0_start( 1000 );
  2301                           	movlw	0E8h
  2302  0154  30E8               	movwf	(T0_start@c)
  2303  0155  00F2               	movlw	03h
  2304  0156  3003               	movwf	((T0_start@c))+1
  2305  0157  00F3               	fcall	_T0_start
  2306  0158  120A  118A  249A  120A  118A  	line	33
  2307                           ;main.c: 33:             seg = ++seg % 60;
  2308                           	movlw	03Ch
  2309  015D  303C               	movwf	(___lwmod@divisor)
  2310  015E  00F2               	movlw	0
  2311  015F  3000               	movwf	((___lwmod@divisor))+1
  2312  0160  00F3               	movlw	01h
  2313  0161  3001               	bcf	status, 5	;RP0=0, select bank0
  2314  0162  1283               	bcf	status, 6	;RP1=0, select bank0
  2315  0163  1303               	addwf	(main@seg),f
  2316  0164  07B1               	skipnc
  2317  0165  1803               	incf	(main@seg+1),f
  2318  0166  0AB2               	movlw	0
  2319  0167  3000               	addwf	(main@seg+1),f
  2320  0168  07B2               	movf	((main@seg+1)),w
  2321  0169  0832               	movwf	(___lwmod@dividend+1)
  2322  016A  00F5               	movf	((main@seg)),w
  2323  016B  0831               	movwf	(___lwmod@dividend)
  2324  016C  00F4               	fcall	___lwmod
  2325  016D  120A  118A  22F9  120A  118A  	movf	(1+(?___lwmod)),w
  2326  0172  0873               	bcf	status, 5	;RP0=0, select bank0
  2327  0173  1283               	bcf	status, 6	;RP1=0, select bank0
  2328  0174  1303               	movwf	(main@seg+1)
  2329  0175  00B2               	movf	(0+(?___lwmod)),w
  2330  0176  0872               	movwf	(main@seg)
  2331  0177  00B1               	line	34
  2332                           	
  2333                           l1614:	
  2334  0178                     ;main.c: 34:             lcd_num(1,0, seg, 2 );
  2335                           	clrf	(lcd_num@col)
  2336  0178  01A4               	movf	(main@seg+1),w
  2337  0179  0832               	movwf	(lcd_num@num+1)
  2338  017A  00A6               	movf	(main@seg),w
  2339  017B  0831               	movwf	(lcd_num@num)
  2340  017C  00A5               	movlw	low(02h)
  2341  017D  3002               	movwf	(??_main+0)+0
  2342  017E  00B0               	movf	(??_main+0)+0,w
  2343  017F  0830               	movwf	(lcd_num@tam)
  2344  0180  00A7               	movlw	low(01h)
  2345  0181  3001               	fcall	_lcd_num
  2346  0182  120A  118A  201F  120A  118A  	goto	l1616
  2347  0187  2988               	line	35
  2348                           ;main.c: 35:         }
  2349                           	
  2350                           l22:	
  2351  0188                     	line	36
  2352                           	
  2353                           l1616:	
  2354  0188                     ;main.c: 36:         if (seg == 60)
  2355                           		movlw	60
  2356  0188  303C               	bcf	status, 5	;RP0=0, select bank0
  2357  0189  1283               	bcf	status, 6	;RP1=0, select bank0
  2358  018A  1303               	xorwf	((main@seg)),w
  2359  018B  0631               iorwf	((main@seg+1)),w
  2360  018C  0432               	btfss	status,2
  2361  018D  1D03               	goto	u1391
  2362  018E  2990               	goto	u1390
  2363  018F  2991               u1391:
  2364  0190                     	goto	l1610
  2365  0190  2949               u1390:
  2366  0191                     	line	38
  2367                           	
  2368                           l1618:	
  2369  0191                     ;main.c: 37:         {;main.c: 38:             PORTCbits.RC0 = 0;
  2370                           	bcf	(7),0	;volatile
  2371  0191  1007               	goto	l1610
  2372  0192  2949               	line	39
  2373                           ;main.c: 39:         }
  2374                           	
  2375                           l23:	
  2376  0193                     	goto	l1610
  2377  0193  2949               	line	41
  2378                           ;main.c: 41:     }
  2379                           	
  2380                           l24:	
  2381  0194                     	goto	l1610
  2382  0194  2949               	
  2383                           l25:	
  2384  0195                     	line	43
  2385                           	
  2386                           l26:	
  2387  0195                     	global	start
  2388                           	ljmp	start
  2389  0195  120A  118A  280C   	opt stack 0
  2390                           GLOBAL	__end_of_main
  2391                           	__end_of_main:
  2392  0198                     	signat	_main,89
  2393                           	global	_prs_init
  2394                           
  2395 ;; *************** function _prs_init *****************
  2396 ;; Defined at:
  2397 ;;		line 17 in file "prs.c"
  2398 ;; Parameters:    Size  Location     Type
  2399 ;;		None
  2400 ;; Auto vars:     Size  Location     Type
  2401 ;;		None
  2402 ;; Return value:  Size  Location     Type
  2403 ;;                  1    wreg      void 
  2404 ;; Registers used:
  2405 ;;		status,2
  2406 ;; Tracked objects:
  2407 ;;		On entry : 0/0
  2408 ;;		On exit  : 0/0
  2409 ;;		Unchanged: 0/0
  2410 ;; Data sizes:     COMMON   BANK0   BANK1   BANK3   BANK2
  2411 ;;      Params:         0       0       0       0       0
  2412 ;;      Locals:         0       0       0       0       0
  2413 ;;      Temps:          0       0       0       0       0
  2414 ;;      Totals:         0       0       0       0       0
  2415 ;;Total ram usage:        0 bytes
  2416 ;; Hardware stack levels used:    1
  2417 ;; Hardware stack levels required when called:    2
  2418 ;; This function calls:
  2419 ;;		Nothing
  2420 ;; This function is called by:
  2421 ;;		_main
  2422 ;; This function uses a non-reentrant model
  2423 ;;
  2424                           psect	text1,local,class=CODE,delta=2,merge=1,group=0
  2425                           	file	"prs.c"
  2426                           	line	17
  2427                           global __ptext1
  2428                           __ptext1:	;psect for function _prs_init
  2429  048F                     psect	text1
  2430                           	file	"prs.c"
  2431                           	line	17
  2432                           	global	__size_of_prs_init
  2433                           	__size_of_prs_init	equ	__end_of_prs_init-_prs_init
  2434  000B                     	
  2435                           _prs_init:	
  2436  048F                     ;incstack = 0
  2437                           	opt	stack 5
  2438                           ; Regs used in _prs_init: [status,2]
  2439                           	line	19
  2440                           	
  2441                           l1346:	
  2442  048F                     ;prs.c: 19:     TRISCbits.TRISC2 = 1;
  2443                           	bsf	status, 5	;RP0=1, select bank1
  2444  048F  1683               	bcf	status, 6	;RP1=0, select bank1
  2445  0490  1303               	bsf	(135)^080h,2	;volatile
  2446  0491  1507               	line	20
  2447                           ;prs.c: 20:     TRISCbits.TRISC0 = 0;
  2448                           	bcf	(135)^080h,0	;volatile
  2449  0492  1007               	line	21
  2450                           	
  2451                           l1348:	
  2452  0493                     ;prs.c: 21:     t_sensor = 0;
  2453                           	bcf	status, 5	;RP0=0, select bank0
  2454  0493  1283               	bcf	status, 6	;RP1=0, select bank0
  2455  0494  1303               	clrf	(_t_sensor)
  2456  0495  01B7               	clrf	(_t_sensor+1)
  2457  0496  01B8               	line	23
  2458                           	
  2459                           l1350:	
  2460  0497                     ;prs.c: 23:     PORTCbits.RC0 = 0;
  2461                           	bcf	(7),0	;volatile
  2462  0497  1007               	line	24
  2463                           	
  2464                           l1352:	
  2465  0498                     ;prs.c: 24:     PORTCbits.RC2 = 0;
  2466                           	bcf	(7),2	;volatile
  2467  0498  1107               	line	26
  2468                           	
  2469                           l119:	
  2470  0499                     	return
  2471  0499  0008               	opt stack 0
  2472                           GLOBAL	__end_of_prs_init
  2473                           	__end_of_prs_init:
  2474  049A                     	signat	_prs_init,89
  2475                           	global	_lcd_print
  2476                           
  2477 ;; *************** function _lcd_print *****************
  2478 ;; Defined at:
  2479 ;;		line 157 in file "lcd.c"
  2480 ;; Parameters:    Size  Location     Type
  2481 ;;  lin             1    wreg     unsigned char 
  2482 ;;  col             1    8[COMMON] unsigned char 
  2483 ;;  str             1    9[COMMON] PTR const unsigned char 
  2484 ;;		 -> STR_1(7), 
  2485 ;; Auto vars:     Size  Location     Type
  2486 ;;  lin             1    2[BANK0 ] unsigned char 
  2487 ;;  pos             1    1[BANK0 ] unsigned char 
  2488 ;; Return value:  Size  Location     Type
  2489 ;;                  1    wreg      void 
  2490 ;; Registers used:
  2491 ;;		wreg, fsr0l, fsr0h, status,2, status,0, pclath, cstack
  2492 ;; Tracked objects:
  2493 ;;		On entry : 0/0
  2494 ;;		On exit  : 0/0
  2495 ;;		Unchanged: 0/0
  2496 ;; Data sizes:     COMMON   BANK0   BANK1   BANK3   BANK2
  2497 ;;      Params:         2       0       0       0       0
  2498 ;;      Locals:         0       2       0       0       0
  2499 ;;      Temps:          0       1       0       0       0
  2500 ;;      Totals:         2       3       0       0       0
  2501 ;;Total ram usage:        5 bytes
  2502 ;; Hardware stack levels used:    1
  2503 ;; Hardware stack levels required when called:    4
  2504 ;; This function calls:
  2505 ;;		_lcd_dataReg
  2506 ;;		_lcd_lincol
  2507 ;; This function is called by:
  2508 ;;		_main
  2509 ;; This function uses a non-reentrant model
  2510 ;;
  2511                           psect	text2,local,class=CODE,delta=2,merge=1,group=0
  2512                           	file	"lcd.c"
  2513                           	line	157
  2514                           global __ptext2
  2515                           __ptext2:	;psect for function _lcd_print
  2516  0379                     psect	text2
  2517                           	file	"lcd.c"
  2518                           	line	157
  2519                           	global	__size_of_lcd_print
  2520                           	__size_of_lcd_print	equ	__end_of_lcd_print-_lcd_print
  2521  0037                     	
  2522                           _lcd_print:	
  2523  0379                     ;incstack = 0
  2524                           	opt	stack 3
  2525                           ; Regs used in _lcd_print: [wreg-fsr0h+status,2+status,0+pclath+cstack]
  2526                           ;lcd_print@lin stored from wreg
  2527                           	bcf	status, 5	;RP0=0, select bank0
  2528  0379  1283               	bcf	status, 6	;RP1=0, select bank0
  2529  037A  1303               	movwf	(lcd_print@lin)
  2530  037B  00A2               	line	159
  2531                           	
  2532                           l1584:	
  2533  037C                     ;lcd.c: 157: void lcd_print( unsigned char lin, unsigned char col, const char * str );lc
                                 d.c: 158: {;lcd.c: 159:     char pos = col;
  2534                           	movf	(lcd_print@col),w
  2535  037C  0878               	movwf	(??_lcd_print+0)+0
  2536  037D  00A0               	movf	(??_lcd_print+0)+0,w
  2537  037E  0820               	movwf	(lcd_print@pos)
  2538  037F  00A1               	line	160
  2539                           	
  2540                           l1586:	
  2541  0380                     ;lcd.c: 160:     lcd_lincol( lin, col );
  2542                           	movf	(lcd_print@col),w
  2543  0380  0878               	movwf	(??_lcd_print+0)+0
  2544  0381  00A0               	movf	(??_lcd_print+0)+0,w
  2545  0382  0820               	movwf	(lcd_lincol@col)
  2546  0383  00F5               	movf	(lcd_print@lin),w
  2547  0384  0822               	fcall	_lcd_lincol
  2548  0385  120A  118A  243D  120A  118A  	line	162
  2549                           ;lcd.c: 162:     while( *str )
  2550                           	goto	l1594
  2551  038A  2BA2               	
  2552                           l72:	
  2553  038B                     	line	164
  2554                           	
  2555                           l1588:	
  2556  038B                     ;lcd.c: 163:     {;lcd.c: 164:         lcd_dataReg( *str );
  2557                           	movf	(lcd_print@str),w
  2558  038B  0879               	movwf	fsr0
  2559  038C  0084               	fcall	stringdir
  2560  038D  120A  118A  2482  120A  118A  	fcall	_lcd_dataReg
  2561  0392  120A  118A  23B0  120A  118A  	line	165
  2562                           	
  2563                           l1590:	
  2564  0397                     ;lcd.c: 165:         ++str;
  2565                           	movlw	low(01h)
  2566  0397  3001               	bcf	status, 5	;RP0=0, select bank0
  2567  0398  1283               	bcf	status, 6	;RP1=0, select bank0
  2568  0399  1303               	movwf	(??_lcd_print+0)+0
  2569  039A  00A0               	movf	(??_lcd_print+0)+0,w
  2570  039B  0820               	addwf	(lcd_print@str),f
  2571  039C  07F9               	line	166
  2572                           	
  2573                           l1592:	
  2574  039D                     ;lcd.c: 166:         ++pos;
  2575                           	movlw	low(01h)
  2576  039D  3001               	movwf	(??_lcd_print+0)+0
  2577  039E  00A0               	movf	(??_lcd_print+0)+0,w
  2578  039F  0820               	addwf	(lcd_print@pos),f
  2579  03A0  07A1               	goto	l1594
  2580  03A1  2BA2               	line	167
  2581                           ;lcd.c: 167:     }
  2582                           	
  2583                           l71:	
  2584  03A2                     	line	162
  2585                           	
  2586                           l1594:	
  2587  03A2                     ;lcd.c: 162:     while( *str )
  2588                           	movf	(lcd_print@str),w
  2589  03A2  0879               	movwf	fsr0
  2590  03A3  0084               	fcall	stringdir
  2591  03A4  120A  118A  2482  120A  118A  	xorlw	0
  2592  03A9  3A00               	skipz
  2593  03AA  1D03               	goto	u1371
  2594  03AB  2BAD               	goto	u1370
  2595  03AC  2BAE               u1371:
  2596  03AD                     	goto	l1588
  2597  03AD  2B8B               u1370:
  2598  03AE                     	goto	l74
  2599  03AE  2BAF               	
  2600                           l73:	
  2601  03AF                     	line	168
  2602                           	
  2603                           l74:	
  2604  03AF                     	return
  2605  03AF  0008               	opt stack 0
  2606                           GLOBAL	__end_of_lcd_print
  2607                           	__end_of_lcd_print:
  2608  03B0                     	signat	_lcd_print,12409
  2609                           	global	_lcd_num
  2610                           
  2611 ;; *************** function _lcd_num *****************
  2612 ;; Defined at:
  2613 ;;		line 179 in file "lcd.c"
  2614 ;; Parameters:    Size  Location     Type
  2615 ;;  lin             1    wreg     unsigned char 
  2616 ;;  col             1    4[BANK0 ] unsigned char 
  2617 ;;  num             2    5[BANK0 ] int 
  2618 ;;  tam             1    7[BANK0 ] unsigned char 
  2619 ;; Auto vars:     Size  Location     Type
  2620 ;;  lin             1   11[BANK0 ] unsigned char 
  2621 ;;  div             2   14[BANK0 ] int 
  2622 ;;  sinal           1   13[BANK0 ] unsigned char 
  2623 ;;  size            1   12[BANK0 ] unsigned char 
  2624 ;; Return value:  Size  Location     Type
  2625 ;;                  1    wreg      void 
  2626 ;; Registers used:
  2627 ;;		wreg, status,2, status,0, btemp+1, pclath, cstack
  2628 ;; Tracked objects:
  2629 ;;		On entry : 0/0
  2630 ;;		On exit  : 0/0
  2631 ;;		Unchanged: 0/0
  2632 ;; Data sizes:     COMMON   BANK0   BANK1   BANK3   BANK2
  2633 ;;      Params:         0       4       0       0       0
  2634 ;;      Locals:         0       5       0       0       0
  2635 ;;      Temps:          0       3       0       0       0
  2636 ;;      Totals:         0      12       0       0       0
  2637 ;;Total ram usage:       12 bytes
  2638 ;; Hardware stack levels used:    1
  2639 ;; Hardware stack levels required when called:    4
  2640 ;; This function calls:
  2641 ;;		___awdiv
  2642 ;;		___awmod
  2643 ;;		_lcd_dataReg
  2644 ;;		_lcd_lincol
  2645 ;; This function is called by:
  2646 ;;		_main
  2647 ;; This function uses a non-reentrant model
  2648 ;;
  2649                           psect	text3,local,class=CODE,delta=2,merge=1,group=0
  2650                           	line	179
  2651                           global __ptext3
  2652                           __ptext3:	;psect for function _lcd_num
  2653  001F                     psect	text3
  2654                           	file	"lcd.c"
  2655                           	line	179
  2656                           	global	__size_of_lcd_num
  2657                           	__size_of_lcd_num	equ	__end_of_lcd_num-_lcd_num
  2658  00EE                     	
  2659                           _lcd_num:	
  2660  001F                     ;incstack = 0
  2661                           	opt	stack 3
  2662                           ; Regs used in _lcd_num: [wreg+status,2+status,0+btemp+1+pclath+cstack]
  2663                           ;lcd_num@lin stored from wreg
  2664                           	bcf	status, 5	;RP0=0, select bank0
  2665  001F  1283               	bcf	status, 6	;RP1=0, select bank0
  2666  0020  1303               	movwf	(lcd_num@lin)
  2667  0021  00AB               	line	186
  2668                           	
  2669                           l1550:	
  2670  0022                     ;lcd.c: 179: void lcd_num( unsigned char lin, unsigned char col,;lcd.c: 180:            
                                          int num, unsigned char tam );lcd.c: 181: {;lcd.c: 182:     int div;;lcd.c: 183:
                                      unsigned char size;;lcd.c: 184:     char sinal;;lcd.c: 186:     sinal = num < 0;
  2671                           	btfsc	(lcd_num@num+1),7
  2672  0022  1BA6               	goto	u1281
  2673  0023  2825               	goto	u1280
  2674  0024  2827               u1281:
  2675  0025                     	movlw	1
  2676  0025  3001               	goto	u1290
  2677  0026  2828               u1280:
  2678  0027                     	movlw	0
  2679  0027  3000               u1290:
  2680  0028                     	movwf	(??_lcd_num+0)+0
  2681  0028  00A8               	movf	(??_lcd_num+0)+0,w
  2682  0029  0828               	movwf	(lcd_num@sinal)
  2683  002A  00AD               	line	187
  2684                           	
  2685                           l1552:	
  2686  002B                     ;lcd.c: 187:     if( sinal )
  2687                           	movf	((lcd_num@sinal)),w
  2688  002B  082D               	btfsc	status,2
  2689  002C  1903               	goto	u1301
  2690  002D  282F               	goto	u1300
  2691  002E  2830               u1301:
  2692  002F                     	goto	l1556
  2693  002F  2836               u1300:
  2694  0030                     	line	188
  2695                           	
  2696                           l1554:	
  2697  0030                     ;lcd.c: 188:         num = (~num) + 1;
  2698                           	comf	(lcd_num@num),f
  2699  0030  09A5               	comf	(lcd_num@num+1),f
  2700  0031  09A6               	incf	(lcd_num@num),f
  2701  0032  0AA5               	skipnz
  2702  0033  1903               	incf	(lcd_num@num+1),f
  2703  0034  0AA6               	goto	l1556
  2704  0035  2836               	
  2705                           l77:	
  2706  0036                     	line	190
  2707                           	
  2708                           l1556:	
  2709  0036                     ;lcd.c: 190:     lcd_lincol(lin, col);
  2710                           	movf	(lcd_num@col),w
  2711  0036  0824               	movwf	(??_lcd_num+0)+0
  2712  0037  00A8               	movf	(??_lcd_num+0)+0,w
  2713  0038  0828               	movwf	(lcd_lincol@col)
  2714  0039  00F5               	movf	(lcd_num@lin),w
  2715  003A  082B               	fcall	_lcd_lincol
  2716  003B  120A  118A  243D  120A  118A  	line	192
  2717                           	
  2718                           l1558:	
  2719  0040                     ;lcd.c: 192:     div=10000;
  2720                           	movlw	010h
  2721  0040  3010               	bcf	status, 5	;RP0=0, select bank0
  2722  0041  1283               	bcf	status, 6	;RP1=0, select bank0
  2723  0042  1303               	movwf	(lcd_num@div)
  2724  0043  00AE               	movlw	027h
  2725  0044  3027               	movwf	((lcd_num@div))+1
  2726  0045  00AF               	line	193
  2727                           	
  2728                           l1560:	
  2729  0046                     ;lcd.c: 193:     size = 5;
  2730                           	movlw	low(05h)
  2731  0046  3005               	movwf	(??_lcd_num+0)+0
  2732  0047  00A8               	movf	(??_lcd_num+0)+0,w
  2733  0048  0828               	movwf	(lcd_num@size)
  2734  0049  00AC               	line	194
  2735                           ;lcd.c: 194:     while( div >= 1 )
  2736                           	goto	l1568
  2737  004A  287A               	
  2738                           l79:	
  2739  004B                     	line	196
  2740                           	
  2741                           l1562:	
  2742  004B                     ;lcd.c: 195:     {;lcd.c: 196:         if( num/div == 0 )
  2743                           	bcf	status, 5	;RP0=0, select bank0
  2744  004B  1283               	bcf	status, 6	;RP1=0, select bank0
  2745  004C  1303               	movf	(lcd_num@div+1),w
  2746  004D  082F               	movwf	(___awdiv@divisor+1)
  2747  004E  00F3               	movf	(lcd_num@div),w
  2748  004F  082E               	movwf	(___awdiv@divisor)
  2749  0050  00F2               	movf	(lcd_num@num+1),w
  2750  0051  0826               	movwf	(___awdiv@dividend+1)
  2751  0052  00F5               	movf	(lcd_num@num),w
  2752  0053  0825               	movwf	(___awdiv@dividend)
  2753  0054  00F4               	fcall	___awdiv
  2754  0055  120A  118A  2223  120A  118A  	movf	((0+(?___awdiv))),w
  2755  005A  0872               iorwf	((1+(?___awdiv))),w
  2756  005B  0473               	btfss	status,2
  2757  005C  1D03               	goto	u1311
  2758  005D  285F               	goto	u1310
  2759  005E  2860               u1311:
  2760  005F                     	goto	l1574
  2761  005F  2894               u1310:
  2762  0060                     	line	197
  2763                           	
  2764                           l1564:	
  2765  0060                     ;lcd.c: 197:             --size;
  2766                           	movlw	01h
  2767  0060  3001               	bcf	status, 5	;RP0=0, select bank0
  2768  0061  1283               	bcf	status, 6	;RP1=0, select bank0
  2769  0062  1303               	subwf	(lcd_num@size),f
  2770  0063  02AC               	goto	l1566
  2771  0064  2866               	line	198
  2772                           ;lcd.c: 198:         else
  2773                           	
  2774                           l80:	
  2775  0065                     	line	199
  2776                           ;lcd.c: 199:             break;
  2777                           	goto	l1574
  2778  0065  2894               	
  2779                           l81:	
  2780  0066                     	line	200
  2781                           	
  2782                           l1566:	
  2783  0066                     ;lcd.c: 200:         div/=10;
  2784                           	movlw	0Ah
  2785  0066  300A               	movwf	(___awdiv@divisor)
  2786  0067  00F2               	movlw	0
  2787  0068  3000               	movwf	((___awdiv@divisor))+1
  2788  0069  00F3               	movf	(lcd_num@div+1),w
  2789  006A  082F               	movwf	(___awdiv@dividend+1)
  2790  006B  00F5               	movf	(lcd_num@div),w
  2791  006C  082E               	movwf	(___awdiv@dividend)
  2792  006D  00F4               	fcall	___awdiv
  2793  006E  120A  118A  2223  120A  118A  	movf	(1+(?___awdiv)),w
  2794  0073  0873               	bcf	status, 5	;RP0=0, select bank0
  2795  0074  1283               	bcf	status, 6	;RP1=0, select bank0
  2796  0075  1303               	movwf	(lcd_num@div+1)
  2797  0076  00AF               	movf	(0+(?___awdiv)),w
  2798  0077  0872               	movwf	(lcd_num@div)
  2799  0078  00AE               	goto	l1568
  2800  0079  287A               	line	201
  2801                           ;lcd.c: 201:     }
  2802                           	
  2803                           l78:	
  2804  007A                     	line	194
  2805                           	
  2806                           l1568:	
  2807  007A                     ;lcd.c: 194:     while( div >= 1 )
  2808                           	movf	(lcd_num@div+1),w
  2809  007A  082F               	xorlw	80h
  2810  007B  3A80               	movwf	btemp+1
  2811  007C  00FF               	movlw	(0)^80h
  2812  007D  3080               	subwf	btemp+1,w
  2813  007E  027F               	skipz
  2814  007F  1D03               	goto	u1325
  2815  0080  2883               	movlw	01h
  2816  0081  3001               	subwf	(lcd_num@div),w
  2817  0082  022E               u1325:
  2818  0083                     
  2819                           	skipnc
  2820  0083  1803               	goto	u1321
  2821  0084  2886               	goto	u1320
  2822  0085  2887               u1321:
  2823  0086                     	goto	l1562
  2824  0086  284B               u1320:
  2825  0087                     	goto	l1574
  2826  0087  2894               	
  2827                           l82:	
  2828  0088                     	line	203
  2829                           ;lcd.c: 203:     while( tam > (size+sinal) && tam > 1 )
  2830                           	goto	l1574
  2831  0088  2894               	
  2832                           l84:	
  2833  0089                     	line	205
  2834                           	
  2835                           l1570:	
  2836  0089                     ;lcd.c: 204:     {;lcd.c: 205:         lcd_dataReg(' ');
  2837                           	movlw	low(020h)
  2838  0089  3020               	fcall	_lcd_dataReg
  2839  008A  120A  118A  23B0  120A  118A  	line	206
  2840                           	
  2841                           l1572:	
  2842  008F                     ;lcd.c: 206:         --tam;
  2843                           	movlw	01h
  2844  008F  3001               	bcf	status, 5	;RP0=0, select bank0
  2845  0090  1283               	bcf	status, 6	;RP1=0, select bank0
  2846  0091  1303               	subwf	(lcd_num@tam),f
  2847  0092  02A7               	goto	l1574
  2848  0093  2894               	line	207
  2849                           ;lcd.c: 207:     }
  2850                           	
  2851                           l83:	
  2852  0094                     	line	203
  2853                           	
  2854                           l1574:	
  2855  0094                     ;lcd.c: 203:     while( tam > (size+sinal) && tam > 1 )
  2856                           	bcf	status, 5	;RP0=0, select bank0
  2857  0094  1283               	bcf	status, 6	;RP1=0, select bank0
  2858  0095  1303               	movf	(lcd_num@size),w
  2859  0096  082C               	addwf	(lcd_num@sinal),w
  2860  0097  072D               	movwf	(??_lcd_num+0)+0
  2861  0098  00A8               	clrf	(??_lcd_num+0)+0+1
  2862  0099  01A9               	rlf	1+(??_lcd_num+0)+0,f
  2863  009A  0DA9               	
  2864                           	movf	1+(??_lcd_num+0)+0,w
  2865  009B  0829               	xorlw	80h
  2866  009C  3A80               	movwf	(??_lcd_num+2)+0
  2867  009D  00AA               	movlw	80h
  2868  009E  3080               	subwf	(??_lcd_num+2)+0,w
  2869  009F  022A               	skipz
  2870  00A0  1D03               	goto	u1335
  2871  00A1  28A4               	movf	(lcd_num@tam),w
  2872  00A2  0827               	subwf	0+(??_lcd_num+0)+0,w
  2873  00A3  0228               u1335:
  2874  00A4                     
  2875                           	skipnc
  2876  00A4  1803               	goto	u1331
  2877  00A5  28A7               	goto	u1330
  2878  00A6  28A8               u1331:
  2879  00A7                     	goto	l1578
  2880  00A7  28B2               u1330:
  2881  00A8                     	
  2882                           l1576:	
  2883  00A8                     	movlw	low(02h)
  2884  00A8  3002               	bcf	status, 5	;RP0=0, select bank0
  2885  00A9  1283               	bcf	status, 6	;RP1=0, select bank0
  2886  00AA  1303               	subwf	(lcd_num@tam),w
  2887  00AB  0227               	skipnc
  2888  00AC  1803               	goto	u1341
  2889  00AD  28AF               	goto	u1340
  2890  00AE  28B0               u1341:
  2891  00AF                     	goto	l1570
  2892  00AF  2889               u1340:
  2893  00B0                     	goto	l1578
  2894  00B0  28B2               	
  2895                           l86:	
  2896  00B1                     	goto	l1578
  2897  00B1  28B2               	
  2898                           l87:	
  2899  00B2                     	line	209
  2900                           	
  2901                           l1578:	
  2902  00B2                     ;lcd.c: 209:     if( sinal )
  2903                           	bcf	status, 5	;RP0=0, select bank0
  2904  00B2  1283               	bcf	status, 6	;RP1=0, select bank0
  2905  00B3  1303               	movf	((lcd_num@sinal)),w
  2906  00B4  082D               	btfsc	status,2
  2907  00B5  1903               	goto	u1351
  2908  00B6  28B8               	goto	u1350
  2909  00B7  28B9               u1351:
  2910  00B8                     	goto	l89
  2911  00B8  28C0               u1350:
  2912  00B9                     	line	210
  2913                           	
  2914                           l1580:	
  2915  00B9                     ;lcd.c: 210:         lcd_dataReg('-');
  2916                           	movlw	low(02Dh)
  2917  00B9  302D               	fcall	_lcd_dataReg
  2918  00BA  120A  118A  23B0  120A  118A  	goto	l89
  2919  00BF  28C0               	
  2920                           l88:	
  2921  00C0                     	line	212
  2922                           ;lcd.c: 212:     do
  2923                           	
  2924                           l89:	
  2925  00C0                     	line	214
  2926                           ;lcd.c: 213:     {;lcd.c: 214:         lcd_dataReg( (unsigned char)(num / div) + '0' );

  2927                           	bcf	status, 5	;RP0=0, select bank0
  2928  00C0  1283               	bcf	status, 6	;RP1=0, select bank0
  2929  00C1  1303               	movf	(lcd_num@div+1),w
  2930  00C2  082F               	movwf	(___awdiv@divisor+1)
  2931  00C3  00F3               	movf	(lcd_num@div),w
  2932  00C4  082E               	movwf	(___awdiv@divisor)
  2933  00C5  00F2               	movf	(lcd_num@num+1),w
  2934  00C6  0826               	movwf	(___awdiv@dividend+1)
  2935  00C7  00F5               	movf	(lcd_num@num),w
  2936  00C8  0825               	movwf	(___awdiv@dividend)
  2937  00C9  00F4               	fcall	___awdiv
  2938  00CA  120A  118A  2223  120A  118A  	movf	(0+(?___awdiv)),w
  2939  00CF  0872               	addlw	030h
  2940  00D0  3E30               	fcall	_lcd_dataReg
  2941  00D1  120A  118A  23B0  120A  118A  	line	215
  2942                           ;lcd.c: 215:         num = num % div;
  2943                           	bcf	status, 5	;RP0=0, select bank0
  2944  00D6  1283               	bcf	status, 6	;RP1=0, select bank0
  2945  00D7  1303               	movf	(lcd_num@div+1),w
  2946  00D8  082F               	movwf	(___awmod@divisor+1)
  2947  00D9  00F3               	movf	(lcd_num@div),w
  2948  00DA  082E               	movwf	(___awmod@divisor)
  2949  00DB  00F2               	movf	(lcd_num@num+1),w
  2950  00DC  0826               	movwf	(___awmod@dividend+1)
  2951  00DD  00F5               	movf	(lcd_num@num),w
  2952  00DE  0825               	movwf	(___awmod@dividend)
  2953  00DF  00F4               	fcall	___awmod
  2954  00E0  120A  118A  2296  120A  118A  	movf	(1+(?___awmod)),w
  2955  00E5  0873               	bcf	status, 5	;RP0=0, select bank0
  2956  00E6  1283               	bcf	status, 6	;RP1=0, select bank0
  2957  00E7  1303               	movwf	(lcd_num@num+1)
  2958  00E8  00A6               	movf	(0+(?___awmod)),w
  2959  00E9  0872               	movwf	(lcd_num@num)
  2960  00EA  00A5               	line	216
  2961                           ;lcd.c: 216:         div/=10;
  2962                           	movlw	0Ah
  2963  00EB  300A               	movwf	(___awdiv@divisor)
  2964  00EC  00F2               	movlw	0
  2965  00ED  3000               	movwf	((___awdiv@divisor))+1
  2966  00EE  00F3               	movf	(lcd_num@div+1),w
  2967  00EF  082F               	movwf	(___awdiv@dividend+1)
  2968  00F0  00F5               	movf	(lcd_num@div),w
  2969  00F1  082E               	movwf	(___awdiv@dividend)
  2970  00F2  00F4               	fcall	___awdiv
  2971  00F3  120A  118A  2223  120A  118A  	movf	(1+(?___awdiv)),w
  2972  00F8  0873               	bcf	status, 5	;RP0=0, select bank0
  2973  00F9  1283               	bcf	status, 6	;RP1=0, select bank0
  2974  00FA  1303               	movwf	(lcd_num@div+1)
  2975  00FB  00AF               	movf	(0+(?___awdiv)),w
  2976  00FC  0872               	movwf	(lcd_num@div)
  2977  00FD  00AE               	line	217
  2978                           	
  2979                           l1582:	
  2980  00FE                     ;lcd.c: 217:     }
  2981                           	movf	(lcd_num@div+1),w
  2982  00FE  082F               	xorlw	80h
  2983  00FF  3A80               	movwf	btemp+1
  2984  0100  00FF               	movlw	(0)^80h
  2985  0101  3080               	subwf	btemp+1,w
  2986  0102  027F               	skipz
  2987  0103  1D03               	goto	u1365
  2988  0104  2907               	movlw	01h
  2989  0105  3001               	subwf	(lcd_num@div),w
  2990  0106  022E               u1365:
  2991  0107                     
  2992                           	skipnc
  2993  0107  1803               	goto	u1361
  2994  0108  290A               	goto	u1360
  2995  0109  290B               u1361:
  2996  010A                     	goto	l89
  2997  010A  28C0               u1360:
  2998  010B                     	goto	l91
  2999  010B  290C               	
  3000                           l90:	
  3001  010C                     	line	219
  3002                           	
  3003                           l91:	
  3004  010C                     	return
  3005  010C  0008               	opt stack 0
  3006                           GLOBAL	__end_of_lcd_num
  3007                           	__end_of_lcd_num:
  3008  010D                     	signat	_lcd_num,16505
  3009                           	global	_lcd_lincol
  3010                           
  3011 ;; *************** function _lcd_lincol *****************
  3012 ;; Defined at:
  3013 ;;		line 112 in file "lcd.c"
  3014 ;; Parameters:    Size  Location     Type
  3015 ;;  lin             1    wreg     unsigned char 
  3016 ;;  col             1    5[COMMON] unsigned char 
  3017 ;; Auto vars:     Size  Location     Type
  3018 ;;  lin             1    7[COMMON] unsigned char 
  3019 ;; Return value:  Size  Location     Type
  3020 ;;                  1    wreg      void 
  3021 ;; Registers used:
  3022 ;;		wreg, status,2, status,0, pclath, cstack
  3023 ;; Tracked objects:
  3024 ;;		On entry : 0/0
  3025 ;;		On exit  : 0/0
  3026 ;;		Unchanged: 0/0
  3027 ;; Data sizes:     COMMON   BANK0   BANK1   BANK3   BANK2
  3028 ;;      Params:         1       0       0       0       0
  3029 ;;      Locals:         1       0       0       0       0
  3030 ;;      Temps:          1       0       0       0       0
  3031 ;;      Totals:         3       0       0       0       0
  3032 ;;Total ram usage:        3 bytes
  3033 ;; Hardware stack levels used:    1
  3034 ;; Hardware stack levels required when called:    3
  3035 ;; This function calls:
  3036 ;;		_lcd_instReg
  3037 ;; This function is called by:
  3038 ;;		_lcd_print
  3039 ;;		_lcd_num
  3040 ;; This function uses a non-reentrant model
  3041 ;;
  3042                           psect	text4,local,class=CODE,delta=2,merge=1,group=0
  3043                           	line	112
  3044                           global __ptext4
  3045                           __ptext4:	;psect for function _lcd_lincol
  3046  043D                     psect	text4
  3047                           	file	"lcd.c"
  3048                           	line	112
  3049                           	global	__size_of_lcd_lincol
  3050                           	__size_of_lcd_lincol	equ	__end_of_lcd_lincol-_lcd_lincol
  3051  0013                     	
  3052                           _lcd_lincol:	
  3053  043D                     ;incstack = 0
  3054                           	opt	stack 3
  3055                           ; Regs used in _lcd_lincol: [wreg+status,2+status,0+pclath+cstack]
  3056                           ;lcd_lincol@lin stored from wreg
  3057                           	movwf	(lcd_lincol@lin)
  3058  043D  00F7               	line	114
  3059                           	
  3060                           l1246:	
  3061  043E                     ;lcd.c: 112: void lcd_lincol( unsigned char lin, unsigned char col);lcd.c: 113: {;lcd.c:
                                  114:     lcd_instReg( (0x80+((0x40 * lin) + (col + 0x00) & 0x7F)) );
  3062                           	movf	(lcd_lincol@lin),w
  3063  043E  0877               	movwf	(??_lcd_lincol+0)+0
  3064  043F  00F6               	movlw	06h
  3065  0440  3006               u755:
  3066  0441                     	clrc
  3067  0441  1003               	rlf	(??_lcd_lincol+0)+0,f
  3068  0442  0DF6               	addlw	-1
  3069  0443  3EFF               	skipz
  3070  0444  1D03               	goto	u755
  3071  0445  2C41               	movf	(lcd_lincol@col),w
  3072  0446  0875               	addwf	0+(??_lcd_lincol+0)+0,w
  3073  0447  0776               	andlw	07Fh
  3074  0448  397F               	addlw	080h
  3075  0449  3E80               	fcall	_lcd_instReg
  3076  044A  120A  118A  2198  120A  118A  	line	115
  3077                           	
  3078                           l62:	
  3079  044F                     	return
  3080  044F  0008               	opt stack 0
  3081                           GLOBAL	__end_of_lcd_lincol
  3082                           	__end_of_lcd_lincol:
  3083  0450                     	signat	_lcd_lincol,8313
  3084                           	global	_lcd_dataReg
  3085                           
  3086 ;; *************** function _lcd_dataReg *****************
  3087 ;; Defined at:
  3088 ;;		line 94 in file "lcd.c"
  3089 ;; Parameters:    Size  Location     Type
  3090 ;;  d               1    wreg     unsigned char 
  3091 ;; Auto vars:     Size  Location     Type
  3092 ;;  d               1    4[COMMON] unsigned char 
  3093 ;; Return value:  Size  Location     Type
  3094 ;;                  1    wreg      void 
  3095 ;; Registers used:
  3096 ;;		wreg, status,2, status,0
  3097 ;; Tracked objects:
  3098 ;;		On entry : 0/0
  3099 ;;		On exit  : 0/0
  3100 ;;		Unchanged: 0/0
  3101 ;; Data sizes:     COMMON   BANK0   BANK1   BANK3   BANK2
  3102 ;;      Params:         0       0       0       0       0
  3103 ;;      Locals:         1       0       0       0       0
  3104 ;;      Temps:          2       0       0       0       0
  3105 ;;      Totals:         3       0       0       0       0
  3106 ;;Total ram usage:        3 bytes
  3107 ;; Hardware stack levels used:    1
  3108 ;; Hardware stack levels required when called:    2
  3109 ;; This function calls:
  3110 ;;		Nothing
  3111 ;; This function is called by:
  3112 ;;		_lcd_print
  3113 ;;		_lcd_num
  3114 ;; This function uses a non-reentrant model
  3115 ;;
  3116                           psect	text5,local,class=CODE,delta=2,merge=1,group=0
  3117                           	line	94
  3118                           global __ptext5
  3119                           __ptext5:	;psect for function _lcd_dataReg
  3120  03B0                     psect	text5
  3121                           	file	"lcd.c"
  3122                           	line	94
  3123                           	global	__size_of_lcd_dataReg
  3124                           	__size_of_lcd_dataReg	equ	__end_of_lcd_dataReg-_lcd_dataReg
  3125  0036                     	
  3126                           _lcd_dataReg:	
  3127  03B0                     ;incstack = 0
  3128                           	opt	stack 4
  3129                           ; Regs used in _lcd_dataReg: [wreg+status,2+status,0]
  3130                           ;lcd_dataReg@d stored from wreg
  3131                           	movwf	(lcd_dataReg@d)
  3132  03B0  00F4               	line	96
  3133                           	
  3134                           l1228:	
  3135  03B1                     ;lcd.c: 94: void lcd_dataReg( unsigned char d );lcd.c: 95: {;lcd.c: 96:     PORTDbits.RD
                                 2 = 1;
  3136                           	bcf	status, 5	;RP0=0, select bank0
  3137  03B1  1283               	bcf	status, 6	;RP1=0, select bank0
  3138  03B2  1303               	bsf	(8),2	;volatile
  3139  03B3  1508               	line	97
  3140                           	
  3141                           l1230:	
  3142  03B4                     ;lcd.c: 97:     PORTD = ((PORTD & 0x0F)|(d >> 4<<4));
  3143                           	movf	(lcd_dataReg@d),w
  3144  03B4  0874               	movwf	(??_lcd_dataReg+0)+0
  3145  03B5  00F2               	movlw	04h
  3146  03B6  3004               u725:
  3147  03B7                     	clrc
  3148  03B7  1003               	rrf	(??_lcd_dataReg+0)+0,f
  3149  03B8  0CF2               	addlw	-1
  3150  03B9  3EFF               	skipz
  3151  03BA  1D03               	goto	u725
  3152  03BB  2BB7               	movf	0+(??_lcd_dataReg+0)+0,w
  3153  03BC  0872               	movwf	(??_lcd_dataReg+1)+0
  3154  03BD  00F3               	movlw	04h
  3155  03BE  3004               u735:
  3156  03BF                     	clrc
  3157  03BF  1003               	rlf	(??_lcd_dataReg+1)+0,f
  3158  03C0  0DF3               	addlw	-1
  3159  03C1  3EFF               	skipz
  3160  03C2  1D03               	goto	u735
  3161  03C3  2BBF               	movf	(8),w	;volatile
  3162  03C4  0808               	andlw	0Fh
  3163  03C5  390F               	iorwf	0+(??_lcd_dataReg+1)+0,w
  3164  03C6  0473               	movwf	(8)	;volatile
  3165  03C7  0088               	line	98
  3166                           	
  3167                           l1232:	
  3168  03C8                     ;lcd.c: 98:     PORTDbits.RD3 = 0;
  3169                           	bcf	(8),3	;volatile
  3170  03C8  1188               	line	99
  3171                           	
  3172                           l1234:	
  3173  03C9                     ;lcd.c: 99:     _delay((unsigned long)((40)*(4000000/4000000.0)));
  3174                           	opt asmopt_push
  3175                           opt asmopt_off
  3176                           	movlw	13
  3177  03C9  300D               movwf	((??_lcd_dataReg+0)+0),f
  3178  03CA  00F2               	u1407:
  3179  03CB                     decfsz	(??_lcd_dataReg+0)+0,f
  3180  03CB  0BF2               	goto	u1407
  3181  03CC  2BCB               opt asmopt_pop
  3182                           
  3183                           	line	100
  3184                           	
  3185                           l1236:	
  3186  03CD                     ;lcd.c: 100:     PORTDbits.RD3 = 1;
  3187                           	bcf	status, 5	;RP0=0, select bank0
  3188  03CD  1283               	bcf	status, 6	;RP1=0, select bank0
  3189  03CE  1303               	bsf	(8),3	;volatile
  3190  03CF  1588               	line	102
  3191                           	
  3192                           l1238:	
  3193  03D0                     ;lcd.c: 102:     PORTDbits.RD2 = 1;
  3194                           	bsf	(8),2	;volatile
  3195  03D0  1508               	line	103
  3196                           	
  3197                           l1240:	
  3198  03D1                     ;lcd.c: 103:     PORTD = ((PORTD & 0x0F)|(d<<4));
  3199                           	movf	(lcd_dataReg@d),w
  3200  03D1  0874               	movwf	(??_lcd_dataReg+0)+0
  3201  03D2  00F2               	movlw	04h
  3202  03D3  3004               u745:
  3203  03D4                     	clrc
  3204  03D4  1003               	rlf	(??_lcd_dataReg+0)+0,f
  3205  03D5  0DF2               	addlw	-1
  3206  03D6  3EFF               	skipz
  3207  03D7  1D03               	goto	u745
  3208  03D8  2BD4               	movf	(8),w	;volatile
  3209  03D9  0808               	andlw	0Fh
  3210  03DA  390F               	iorwf	0+(??_lcd_dataReg+0)+0,w
  3211  03DB  0472               	movwf	(8)	;volatile
  3212  03DC  0088               	line	104
  3213                           	
  3214                           l1242:	
  3215  03DD                     ;lcd.c: 104:     PORTDbits.RD3 = 0;
  3216                           	bcf	(8),3	;volatile
  3217  03DD  1188               	line	105
  3218                           ;lcd.c: 105:     _delay((unsigned long)((40)*(4000000/4000000.0)));
  3219                           	opt asmopt_push
  3220                           opt asmopt_off
  3221                           	movlw	13
  3222  03DE  300D               movwf	((??_lcd_dataReg+0)+0),f
  3223  03DF  00F2               	u1417:
  3224  03E0                     decfsz	(??_lcd_dataReg+0)+0,f
  3225  03E0  0BF2               	goto	u1417
  3226  03E1  2BE0               opt asmopt_pop
  3227                           
  3228                           	line	106
  3229                           	
  3230                           l1244:	
  3231  03E2                     ;lcd.c: 106:     PORTDbits.RD3 = 1;
  3232                           	bcf	status, 5	;RP0=0, select bank0
  3233  03E2  1283               	bcf	status, 6	;RP1=0, select bank0
  3234  03E3  1303               	bsf	(8),3	;volatile
  3235  03E4  1588               	line	107
  3236                           	
  3237                           l59:	
  3238  03E5                     	return
  3239  03E5  0008               	opt stack 0
  3240                           GLOBAL	__end_of_lcd_dataReg
  3241                           	__end_of_lcd_dataReg:
  3242  03E6                     	signat	_lcd_dataReg,4217
  3243                           	global	___awmod
  3244                           
  3245 ;; *************** function ___awmod *****************
  3246 ;; Defined at:
  3247 ;;		line 5 in file "C:\Program Files (x86)\Microchip\xc8\v2.00\pic\sources\c90\common\awmod.c"
  3248 ;; Parameters:    Size  Location     Type
  3249 ;;  divisor         2    2[COMMON] int 
  3250 ;;  dividend        2    4[COMMON] int 
  3251 ;; Auto vars:     Size  Location     Type
  3252 ;;  sign            1    8[COMMON] unsigned char 
  3253 ;;  counter         1    7[COMMON] unsigned char 
  3254 ;; Return value:  Size  Location     Type
  3255 ;;                  2    2[COMMON] int 
  3256 ;; Registers used:
  3257 ;;		wreg, status,2, status,0
  3258 ;; Tracked objects:
  3259 ;;		On entry : 0/0
  3260 ;;		On exit  : 0/0
  3261 ;;		Unchanged: 0/0
  3262 ;; Data sizes:     COMMON   BANK0   BANK1   BANK3   BANK2
  3263 ;;      Params:         4       0       0       0       0
  3264 ;;      Locals:         2       0       0       0       0
  3265 ;;      Temps:          1       0       0       0       0
  3266 ;;      Totals:         7       0       0       0       0
  3267 ;;Total ram usage:        7 bytes
  3268 ;; Hardware stack levels used:    1
  3269 ;; Hardware stack levels required when called:    2
  3270 ;; This function calls:
  3271 ;;		Nothing
  3272 ;; This function is called by:
  3273 ;;		_lcd_num
  3274 ;; This function uses a non-reentrant model
  3275 ;;
  3276                           psect	text6,local,class=CODE,delta=2,merge=1,group=1
  3277                           	file	"C:\Program Files (x86)\Microchip\xc8\v2.00\pic\sources\c90\common\awmod.c"
  3278                           	line	5
  3279                           global __ptext6
  3280                           __ptext6:	;psect for function ___awmod
  3281  0296                     psect	text6
  3282                           	file	"C:\Program Files (x86)\Microchip\xc8\v2.00\pic\sources\c90\common\awmod.c"
  3283                           	line	5
  3284                           	global	__size_of___awmod
  3285                           	__size_of___awmod	equ	__end_of___awmod-___awmod
  3286  0063                     	
  3287                           ___awmod:	
  3288  0296                     ;incstack = 0
  3289                           	opt	stack 4
  3290                           ; Regs used in ___awmod: [wreg+status,2+status,0]
  3291                           	line	12
  3292                           	
  3293                           l1292:	
  3294  0296                     	clrf	(___awmod@sign)
  3295  0296  01F8               	line	13
  3296                           	
  3297                           l1294:	
  3298  0297                     	btfss	(___awmod@dividend+1),7
  3299  0297  1FF5               	goto	u861
  3300  0298  2A9A               	goto	u860
  3301  0299  2A9B               u861:
  3302  029A                     	goto	l1300
  3303  029A  2AA3               u860:
  3304  029B                     	line	14
  3305                           	
  3306                           l1296:	
  3307  029B                     	comf	(___awmod@dividend),f
  3308  029B  09F4               	comf	(___awmod@dividend+1),f
  3309  029C  09F5               	incf	(___awmod@dividend),f
  3310  029D  0AF4               	skipnz
  3311  029E  1903               	incf	(___awmod@dividend+1),f
  3312  029F  0AF5               	line	15
  3313                           	
  3314                           l1298:	
  3315  02A0                     	clrf	(___awmod@sign)
  3316  02A0  01F8               	incf	(___awmod@sign),f
  3317  02A1  0AF8               	goto	l1300
  3318  02A2  2AA3               	line	16
  3319                           	
  3320                           l465:	
  3321  02A3                     	line	17
  3322                           	
  3323                           l1300:	
  3324  02A3                     	btfss	(___awmod@divisor+1),7
  3325  02A3  1FF3               	goto	u871
  3326  02A4  2AA6               	goto	u870
  3327  02A5  2AA7               u871:
  3328  02A6                     	goto	l1304
  3329  02A6  2AAD               u870:
  3330  02A7                     	line	18
  3331                           	
  3332                           l1302:	
  3333  02A7                     	comf	(___awmod@divisor),f
  3334  02A7  09F2               	comf	(___awmod@divisor+1),f
  3335  02A8  09F3               	incf	(___awmod@divisor),f
  3336  02A9  0AF2               	skipnz
  3337  02AA  1903               	incf	(___awmod@divisor+1),f
  3338  02AB  0AF3               	goto	l1304
  3339  02AC  2AAD               	
  3340                           l466:	
  3341  02AD                     	line	19
  3342                           	
  3343                           l1304:	
  3344  02AD                     	movf	((___awmod@divisor)),w
  3345  02AD  0872               iorwf	((___awmod@divisor+1)),w
  3346  02AE  0473               	btfsc	status,2
  3347  02AF  1903               	goto	u881
  3348  02B0  2AB2               	goto	u880
  3349  02B1  2AB3               u881:
  3350  02B2                     	goto	l1322
  3351  02B2  2AE8               u880:
  3352  02B3                     	line	20
  3353                           	
  3354                           l1306:	
  3355  02B3                     	clrf	(___awmod@counter)
  3356  02B3  01F7               	incf	(___awmod@counter),f
  3357  02B4  0AF7               	line	21
  3358                           	goto	l1312
  3359  02B5  2AC2               	
  3360                           l469:	
  3361  02B6                     	line	22
  3362                           	
  3363                           l1308:	
  3364  02B6                     	movlw	01h
  3365  02B6  3001               	
  3366                           u895:
  3367  02B7                     	clrc
  3368  02B7  1003               	rlf	(___awmod@divisor),f
  3369  02B8  0DF2               	rlf	(___awmod@divisor+1),f
  3370  02B9  0DF3               	addlw	-1
  3371  02BA  3EFF               	skipz
  3372  02BB  1D03               	goto	u895
  3373  02BC  2AB7               	line	23
  3374                           	
  3375                           l1310:	
  3376  02BD                     	movlw	low(01h)
  3377  02BD  3001               	movwf	(??___awmod+0)+0
  3378  02BE  00F6               	movf	(??___awmod+0)+0,w
  3379  02BF  0876               	addwf	(___awmod@counter),f
  3380  02C0  07F7               	goto	l1312
  3381  02C1  2AC2               	line	24
  3382                           	
  3383                           l468:	
  3384  02C2                     	line	21
  3385                           	
  3386                           l1312:	
  3387  02C2                     	btfss	(___awmod@divisor+1),(15)&7
  3388  02C2  1FF3               	goto	u901
  3389  02C3  2AC5               	goto	u900
  3390  02C4  2AC6               u901:
  3391  02C5                     	goto	l1308
  3392  02C5  2AB6               u900:
  3393  02C6                     	goto	l1314
  3394  02C6  2AC8               	
  3395                           l470:	
  3396  02C7                     	goto	l1314
  3397  02C7  2AC8               	line	25
  3398                           	
  3399                           l471:	
  3400  02C8                     	line	26
  3401                           	
  3402                           l1314:	
  3403  02C8                     	movf	(___awmod@divisor+1),w
  3404  02C8  0873               	subwf	(___awmod@dividend+1),w
  3405  02C9  0275               	skipz
  3406  02CA  1D03               	goto	u915
  3407  02CB  2ACE               	movf	(___awmod@divisor),w
  3408  02CC  0872               	subwf	(___awmod@dividend),w
  3409  02CD  0274               u915:
  3410  02CE                     	skipc
  3411  02CE  1C03               	goto	u911
  3412  02CF  2AD1               	goto	u910
  3413  02D0  2AD2               u911:
  3414  02D1                     	goto	l1318
  3415  02D1  2AD9               u910:
  3416  02D2                     	line	27
  3417                           	
  3418                           l1316:	
  3419  02D2                     	movf	(___awmod@divisor),w
  3420  02D2  0872               	subwf	(___awmod@dividend),f
  3421  02D3  02F4               	movf	(___awmod@divisor+1),w
  3422  02D4  0873               	skipc
  3423  02D5  1C03               	decf	(___awmod@dividend+1),f
  3424  02D6  03F5               	subwf	(___awmod@dividend+1),f
  3425  02D7  02F5               	goto	l1318
  3426  02D8  2AD9               	
  3427                           l472:	
  3428  02D9                     	line	28
  3429                           	
  3430                           l1318:	
  3431  02D9                     	movlw	01h
  3432  02D9  3001               	
  3433                           u925:
  3434  02DA                     	clrc
  3435  02DA  1003               	rrf	(___awmod@divisor+1),f
  3436  02DB  0CF3               	rrf	(___awmod@divisor),f
  3437  02DC  0CF2               	addlw	-1
  3438  02DD  3EFF               	skipz
  3439  02DE  1D03               	goto	u925
  3440  02DF  2ADA               	line	29
  3441                           	
  3442                           l1320:	
  3443  02E0                     	movlw	01h
  3444  02E0  3001               	subwf	(___awmod@counter),f
  3445  02E1  02F7               	btfss	status,2
  3446  02E2  1D03               	goto	u931
  3447  02E3  2AE5               	goto	u930
  3448  02E4  2AE6               u931:
  3449  02E5                     	goto	l1314
  3450  02E5  2AC8               u930:
  3451  02E6                     	goto	l1322
  3452  02E6  2AE8               	
  3453                           l473:	
  3454  02E7                     	goto	l1322
  3455  02E7  2AE8               	line	30
  3456                           	
  3457                           l467:	
  3458  02E8                     	line	31
  3459                           	
  3460                           l1322:	
  3461  02E8                     	movf	((___awmod@sign)),w
  3462  02E8  0878               	btfsc	status,2
  3463  02E9  1903               	goto	u941
  3464  02EA  2AEC               	goto	u940
  3465  02EB  2AED               u941:
  3466  02EC                     	goto	l1326
  3467  02EC  2AF3               u940:
  3468  02ED                     	line	32
  3469                           	
  3470                           l1324:	
  3471  02ED                     	comf	(___awmod@dividend),f
  3472  02ED  09F4               	comf	(___awmod@dividend+1),f
  3473  02EE  09F5               	incf	(___awmod@dividend),f
  3474  02EF  0AF4               	skipnz
  3475  02F0  1903               	incf	(___awmod@dividend+1),f
  3476  02F1  0AF5               	goto	l1326
  3477  02F2  2AF3               	
  3478                           l474:	
  3479  02F3                     	line	33
  3480                           	
  3481                           l1326:	
  3482  02F3                     	movf	(___awmod@dividend+1),w
  3483  02F3  0875               	movwf	(?___awmod+1)
  3484  02F4  00F3               	movf	(___awmod@dividend),w
  3485  02F5  0874               	movwf	(?___awmod)
  3486  02F6  00F2               	goto	l475
  3487  02F7  2AF8               	
  3488                           l1328:	
  3489  02F8                     	line	34
  3490                           	
  3491                           l475:	
  3492  02F8                     	return
  3493  02F8  0008               	opt stack 0
  3494                           GLOBAL	__end_of___awmod
  3495                           	__end_of___awmod:
  3496  02F9                     	signat	___awmod,8314
  3497                           	global	___awdiv
  3498                           
  3499 ;; *************** function ___awdiv *****************
  3500 ;; Defined at:
  3501 ;;		line 5 in file "C:\Program Files (x86)\Microchip\xc8\v2.00\pic\sources\c90\common\awdiv.c"
  3502 ;; Parameters:    Size  Location     Type
  3503 ;;  divisor         2    2[COMMON] int 
  3504 ;;  dividend        2    4[COMMON] int 
  3505 ;; Auto vars:     Size  Location     Type
  3506 ;;  quotient        2    2[BANK0 ] int 
  3507 ;;  sign            1    1[BANK0 ] unsigned char 
  3508 ;;  counter         1    0[BANK0 ] unsigned char 
  3509 ;; Return value:  Size  Location     Type
  3510 ;;                  2    2[COMMON] int 
  3511 ;; Registers used:
  3512 ;;		wreg, status,2, status,0
  3513 ;; Tracked objects:
  3514 ;;		On entry : 0/0
  3515 ;;		On exit  : 0/0
  3516 ;;		Unchanged: 0/0
  3517 ;; Data sizes:     COMMON   BANK0   BANK1   BANK3   BANK2
  3518 ;;      Params:         4       0       0       0       0
  3519 ;;      Locals:         0       4       0       0       0
  3520 ;;      Temps:          1       0       0       0       0
  3521 ;;      Totals:         5       4       0       0       0
  3522 ;;Total ram usage:        9 bytes
  3523 ;; Hardware stack levels used:    1
  3524 ;; Hardware stack levels required when called:    2
  3525 ;; This function calls:
  3526 ;;		Nothing
  3527 ;; This function is called by:
  3528 ;;		_lcd_num
  3529 ;; This function uses a non-reentrant model
  3530 ;;
  3531                           psect	text7,local,class=CODE,delta=2,merge=1,group=1
  3532                           	file	"C:\Program Files (x86)\Microchip\xc8\v2.00\pic\sources\c90\common\awdiv.c"
  3533                           	line	5
  3534                           global __ptext7
  3535                           __ptext7:	;psect for function ___awdiv
  3536  0223                     psect	text7
  3537                           	file	"C:\Program Files (x86)\Microchip\xc8\v2.00\pic\sources\c90\common\awdiv.c"
  3538                           	line	5
  3539                           	global	__size_of___awdiv
  3540                           	__size_of___awdiv	equ	__end_of___awdiv-___awdiv
  3541  0073                     	
  3542                           ___awdiv:	
  3543  0223                     ;incstack = 0
  3544                           	opt	stack 4
  3545                           ; Regs used in ___awdiv: [wreg+status,2+status,0]
  3546                           	line	13
  3547                           	
  3548                           l1506:	
  3549  0223                     	bcf	status, 5	;RP0=0, select bank0
  3550  0223  1283               	bcf	status, 6	;RP1=0, select bank0
  3551  0224  1303               	clrf	(___awdiv@sign)
  3552  0225  01A1               	line	14
  3553                           	
  3554                           l1508:	
  3555  0226                     	btfss	(___awdiv@divisor+1),7
  3556  0226  1FF3               	goto	u1181
  3557  0227  2A29               	goto	u1180
  3558  0228  2A2A               u1181:
  3559  0229                     	goto	l1514
  3560  0229  2A32               u1180:
  3561  022A                     	line	15
  3562                           	
  3563                           l1510:	
  3564  022A                     	comf	(___awdiv@divisor),f
  3565  022A  09F2               	comf	(___awdiv@divisor+1),f
  3566  022B  09F3               	incf	(___awdiv@divisor),f
  3567  022C  0AF2               	skipnz
  3568  022D  1903               	incf	(___awdiv@divisor+1),f
  3569  022E  0AF3               	line	16
  3570                           	
  3571                           l1512:	
  3572  022F                     	clrf	(___awdiv@sign)
  3573  022F  01A1               	incf	(___awdiv@sign),f
  3574  0230  0AA1               	goto	l1514
  3575  0231  2A32               	line	17
  3576                           	
  3577                           l452:	
  3578  0232                     	line	18
  3579                           	
  3580                           l1514:	
  3581  0232                     	btfss	(___awdiv@dividend+1),7
  3582  0232  1FF5               	goto	u1191
  3583  0233  2A35               	goto	u1190
  3584  0234  2A36               u1191:
  3585  0235                     	goto	l1520
  3586  0235  2A40               u1190:
  3587  0236                     	line	19
  3588                           	
  3589                           l1516:	
  3590  0236                     	comf	(___awdiv@dividend),f
  3591  0236  09F4               	comf	(___awdiv@dividend+1),f
  3592  0237  09F5               	incf	(___awdiv@dividend),f
  3593  0238  0AF4               	skipnz
  3594  0239  1903               	incf	(___awdiv@dividend+1),f
  3595  023A  0AF5               	line	20
  3596                           	
  3597                           l1518:	
  3598  023B                     	movlw	low(01h)
  3599  023B  3001               	movwf	(??___awdiv+0)+0
  3600  023C  00F6               	movf	(??___awdiv+0)+0,w
  3601  023D  0876               	xorwf	(___awdiv@sign),f
  3602  023E  06A1               	goto	l1520
  3603  023F  2A40               	line	21
  3604                           	
  3605                           l453:	
  3606  0240                     	line	22
  3607                           	
  3608                           l1520:	
  3609  0240                     	clrf	(___awdiv@quotient)
  3610  0240  01A2               	clrf	(___awdiv@quotient+1)
  3611  0241  01A3               	line	23
  3612                           	
  3613                           l1522:	
  3614  0242                     	movf	((___awdiv@divisor)),w
  3615  0242  0872               iorwf	((___awdiv@divisor+1)),w
  3616  0243  0473               	btfsc	status,2
  3617  0244  1903               	goto	u1201
  3618  0245  2A47               	goto	u1200
  3619  0246  2A48               u1201:
  3620  0247                     	goto	l1542
  3621  0247  2A85               u1200:
  3622  0248                     	line	24
  3623                           	
  3624                           l1524:	
  3625  0248                     	clrf	(___awdiv@counter)
  3626  0248  01A0               	incf	(___awdiv@counter),f
  3627  0249  0AA0               	line	25
  3628                           	goto	l1530
  3629  024A  2A57               	
  3630                           l456:	
  3631  024B                     	line	26
  3632                           	
  3633                           l1526:	
  3634  024B                     	movlw	01h
  3635  024B  3001               	
  3636                           u1215:
  3637  024C                     	clrc
  3638  024C  1003               	rlf	(___awdiv@divisor),f
  3639  024D  0DF2               	rlf	(___awdiv@divisor+1),f
  3640  024E  0DF3               	addlw	-1
  3641  024F  3EFF               	skipz
  3642  0250  1D03               	goto	u1215
  3643  0251  2A4C               	line	27
  3644                           	
  3645                           l1528:	
  3646  0252                     	movlw	low(01h)
  3647  0252  3001               	movwf	(??___awdiv+0)+0
  3648  0253  00F6               	movf	(??___awdiv+0)+0,w
  3649  0254  0876               	addwf	(___awdiv@counter),f
  3650  0255  07A0               	goto	l1530
  3651  0256  2A57               	line	28
  3652                           	
  3653                           l455:	
  3654  0257                     	line	25
  3655                           	
  3656                           l1530:	
  3657  0257                     	btfss	(___awdiv@divisor+1),(15)&7
  3658  0257  1FF3               	goto	u1221
  3659  0258  2A5A               	goto	u1220
  3660  0259  2A5B               u1221:
  3661  025A                     	goto	l1526
  3662  025A  2A4B               u1220:
  3663  025B                     	goto	l1532
  3664  025B  2A5D               	
  3665                           l457:	
  3666  025C                     	goto	l1532
  3667  025C  2A5D               	line	29
  3668                           	
  3669                           l458:	
  3670  025D                     	line	30
  3671                           	
  3672                           l1532:	
  3673  025D                     	movlw	01h
  3674  025D  3001               	
  3675                           u1235:
  3676  025E                     	clrc
  3677  025E  1003               	rlf	(___awdiv@quotient),f
  3678  025F  0DA2               	rlf	(___awdiv@quotient+1),f
  3679  0260  0DA3               	addlw	-1
  3680  0261  3EFF               	skipz
  3681  0262  1D03               	goto	u1235
  3682  0263  2A5E               	line	31
  3683                           	movf	(___awdiv@divisor+1),w
  3684  0264  0873               	subwf	(___awdiv@dividend+1),w
  3685  0265  0275               	skipz
  3686  0266  1D03               	goto	u1245
  3687  0267  2A6A               	movf	(___awdiv@divisor),w
  3688  0268  0872               	subwf	(___awdiv@dividend),w
  3689  0269  0274               u1245:
  3690  026A                     	skipc
  3691  026A  1C03               	goto	u1241
  3692  026B  2A6D               	goto	u1240
  3693  026C  2A6E               u1241:
  3694  026D                     	goto	l1538
  3695  026D  2A76               u1240:
  3696  026E                     	line	32
  3697                           	
  3698                           l1534:	
  3699  026E                     	movf	(___awdiv@divisor),w
  3700  026E  0872               	subwf	(___awdiv@dividend),f
  3701  026F  02F4               	movf	(___awdiv@divisor+1),w
  3702  0270  0873               	skipc
  3703  0271  1C03               	decf	(___awdiv@dividend+1),f
  3704  0272  03F5               	subwf	(___awdiv@dividend+1),f
  3705  0273  02F5               	line	33
  3706                           	
  3707                           l1536:	
  3708  0274                     	bsf	(___awdiv@quotient)+(0/8),(0)&7
  3709  0274  1422               	goto	l1538
  3710  0275  2A76               	line	34
  3711                           	
  3712                           l459:	
  3713  0276                     	line	35
  3714                           	
  3715                           l1538:	
  3716  0276                     	movlw	01h
  3717  0276  3001               	
  3718                           u1255:
  3719  0277                     	clrc
  3720  0277  1003               	rrf	(___awdiv@divisor+1),f
  3721  0278  0CF3               	rrf	(___awdiv@divisor),f
  3722  0279  0CF2               	addlw	-1
  3723  027A  3EFF               	skipz
  3724  027B  1D03               	goto	u1255
  3725  027C  2A77               	line	36
  3726                           	
  3727                           l1540:	
  3728  027D                     	movlw	01h
  3729  027D  3001               	subwf	(___awdiv@counter),f
  3730  027E  02A0               	btfss	status,2
  3731  027F  1D03               	goto	u1261
  3732  0280  2A82               	goto	u1260
  3733  0281  2A83               u1261:
  3734  0282                     	goto	l1532
  3735  0282  2A5D               u1260:
  3736  0283                     	goto	l1542
  3737  0283  2A85               	
  3738                           l460:	
  3739  0284                     	goto	l1542
  3740  0284  2A85               	line	37
  3741                           	
  3742                           l454:	
  3743  0285                     	line	38
  3744                           	
  3745                           l1542:	
  3746  0285                     	movf	((___awdiv@sign)),w
  3747  0285  0821               	btfsc	status,2
  3748  0286  1903               	goto	u1271
  3749  0287  2A89               	goto	u1270
  3750  0288  2A8A               u1271:
  3751  0289                     	goto	l1546
  3752  0289  2A90               u1270:
  3753  028A                     	line	39
  3754                           	
  3755                           l1544:	
  3756  028A                     	comf	(___awdiv@quotient),f
  3757  028A  09A2               	comf	(___awdiv@quotient+1),f
  3758  028B  09A3               	incf	(___awdiv@quotient),f
  3759  028C  0AA2               	skipnz
  3760  028D  1903               	incf	(___awdiv@quotient+1),f
  3761  028E  0AA3               	goto	l1546
  3762  028F  2A90               	
  3763                           l461:	
  3764  0290                     	line	40
  3765                           	
  3766                           l1546:	
  3767  0290                     	movf	(___awdiv@quotient+1),w
  3768  0290  0823               	movwf	(?___awdiv+1)
  3769  0291  00F3               	movf	(___awdiv@quotient),w
  3770  0292  0822               	movwf	(?___awdiv)
  3771  0293  00F2               	goto	l462
  3772  0294  2A95               	
  3773                           l1548:	
  3774  0295                     	line	41
  3775                           	
  3776                           l462:	
  3777  0295                     	return
  3778  0295  0008               	opt stack 0
  3779                           GLOBAL	__end_of___awdiv
  3780                           	__end_of___awdiv:
  3781  0296                     	signat	___awdiv,8314
  3782                           	global	_lcd_init
  3783                           
  3784 ;; *************** function _lcd_init *****************
  3785 ;; Defined at:
  3786 ;;		line 122 in file "lcd.c"
  3787 ;; Parameters:    Size  Location     Type
  3788 ;;		None
  3789 ;; Auto vars:     Size  Location     Type
  3790 ;;		None
  3791 ;; Return value:  Size  Location     Type
  3792 ;;                  1    wreg      void 
  3793 ;; Registers used:
  3794 ;;		wreg, status,2, status,0, pclath, cstack
  3795 ;; Tracked objects:
  3796 ;;		On entry : 0/0
  3797 ;;		On exit  : 0/0
  3798 ;;		Unchanged: 0/0
  3799 ;; Data sizes:     COMMON   BANK0   BANK1   BANK3   BANK2
  3800 ;;      Params:         0       0       0       0       0
  3801 ;;      Locals:         0       0       0       0       0
  3802 ;;      Temps:          0       0       0       0       0
  3803 ;;      Totals:         0       0       0       0       0
  3804 ;;Total ram usage:        0 bytes
  3805 ;; Hardware stack levels used:    1
  3806 ;; Hardware stack levels required when called:    3
  3807 ;; This function calls:
  3808 ;;		_delay_ms
  3809 ;;		_lcd_instReg
  3810 ;; This function is called by:
  3811 ;;		_main
  3812 ;; This function uses a non-reentrant model
  3813 ;;
  3814                           psect	text8,local,class=CODE,delta=2,merge=1,group=0
  3815                           	file	"lcd.c"
  3816                           	line	122
  3817                           global __ptext8
  3818                           __ptext8:	;psect for function _lcd_init
  3819  033A                     psect	text8
  3820                           	file	"lcd.c"
  3821                           	line	122
  3822                           	global	__size_of_lcd_init
  3823                           	__size_of_lcd_init	equ	__end_of_lcd_init-_lcd_init
  3824  003F                     	
  3825                           _lcd_init:	
  3826  033A                     ;incstack = 0
  3827                           	opt	stack 4
  3828                           ; Regs used in _lcd_init: [wreg+status,2+status,0+pclath+cstack]
  3829                           	line	124
  3830                           	
  3831                           l1330:	
  3832  033A                     ;lcd.c: 124:     delay_ms(100);
  3833                           	movlw	064h
  3834  033A  3064               	movwf	(delay_ms@t)
  3835  033B  00F2               	movlw	0
  3836  033C  3000               	movwf	((delay_ms@t))+1
  3837  033D  00F3               	fcall	_delay_ms
  3838  033E  120A  118A  2412  120A  118A  	line	125
  3839                           	
  3840                           l1332:	
  3841  0343                     ;lcd.c: 125:     TRISDbits.TRISD2 = 0;
  3842                           	bsf	status, 5	;RP0=1, select bank1
  3843  0343  1683               	bcf	status, 6	;RP1=0, select bank1
  3844  0344  1303               	bcf	(136)^080h,2	;volatile
  3845  0345  1108               	line	126
  3846                           	
  3847                           l1334:	
  3848  0346                     ;lcd.c: 126:     TRISDbits.TRISD3 = 0;
  3849                           	bcf	(136)^080h,3	;volatile
  3850  0346  1188               	line	127
  3851                           	
  3852                           l1336:	
  3853  0347                     ;lcd.c: 127:     TRISDbits.TRISD4 = 0;
  3854                           	bcf	(136)^080h,4	;volatile
  3855  0347  1208               	line	128
  3856                           	
  3857                           l1338:	
  3858  0348                     ;lcd.c: 128:     TRISDbits.TRISD5 = 0;
  3859                           	bcf	(136)^080h,5	;volatile
  3860  0348  1288               	line	129
  3861                           	
  3862                           l1340:	
  3863  0349                     ;lcd.c: 129:     TRISDbits.TRISD6 = 0;
  3864                           	bcf	(136)^080h,6	;volatile
  3865  0349  1308               	line	130
  3866                           	
  3867                           l1342:	
  3868  034A                     ;lcd.c: 130:     TRISDbits.TRISD7 = 0;
  3869                           	bcf	(136)^080h,7	;volatile
  3870  034A  1388               	line	132
  3871                           ;lcd.c: 132:     delay_ms(100);
  3872                           	movlw	064h
  3873  034B  3064               	movwf	(delay_ms@t)
  3874  034C  00F2               	movlw	0
  3875  034D  3000               	movwf	((delay_ms@t))+1
  3876  034E  00F3               	fcall	_delay_ms
  3877  034F  120A  118A  2412  120A  118A  	line	133
  3878                           	
  3879                           l1344:	
  3880  0354                     ;lcd.c: 133:     PORTDbits.RD3 = 1;
  3881                           	bcf	status, 5	;RP0=0, select bank0
  3882  0354  1283               	bcf	status, 6	;RP1=0, select bank0
  3883  0355  1303               	bsf	(8),3	;volatile
  3884  0356  1588               	line	134
  3885                           ;lcd.c: 134:     lcd_instReg( 0x20|0x00|0x08 );
  3886                           	movlw	low(028h)
  3887  0357  3028               	fcall	_lcd_instReg
  3888  0358  120A  118A  2198  120A  118A  	line	135
  3889                           ;lcd.c: 135:     lcd_instReg( 0x08|0x04|0x00|0x00 );
  3890                           	movlw	low(0Ch)
  3891  035D  300C               	fcall	_lcd_instReg
  3892  035E  120A  118A  2198  120A  118A  	line	136
  3893                           ;lcd.c: 136:     lcd_instReg( 0x01 );
  3894                           	movlw	low(01h)
  3895  0363  3001               	fcall	_lcd_instReg
  3896  0364  120A  118A  2198  120A  118A  	line	137
  3897                           ;lcd.c: 137:     lcd_instReg( 0x02 );
  3898                           	movlw	low(02h)
  3899  0369  3002               	fcall	_lcd_instReg
  3900  036A  120A  118A  2198  120A  118A  	line	138
  3901                           ;lcd.c: 138:     delay_ms(100);
  3902                           	movlw	064h
  3903  036F  3064               	movwf	(delay_ms@t)
  3904  0370  00F2               	movlw	0
  3905  0371  3000               	movwf	((delay_ms@t))+1
  3906  0372  00F3               	fcall	_delay_ms
  3907  0373  120A  118A  2412  120A  118A  	line	139
  3908                           	
  3909                           l65:	
  3910  0378                     	return
  3911  0378  0008               	opt stack 0
  3912                           GLOBAL	__end_of_lcd_init
  3913                           	__end_of_lcd_init:
  3914  0379                     	signat	_lcd_init,89
  3915                           	global	_lcd_instReg
  3916                           
  3917 ;; *************** function _lcd_instReg *****************
  3918 ;; Defined at:
  3919 ;;		line 59 in file "lcd.c"
  3920 ;; Parameters:    Size  Location     Type
  3921 ;;  i               1    wreg     unsigned char 
  3922 ;; Auto vars:     Size  Location     Type
  3923 ;;  i               1    4[COMMON] unsigned char 
  3924 ;; Return value:  Size  Location     Type
  3925 ;;                  1    wreg      void 
  3926 ;; Registers used:
  3927 ;;		wreg, status,2, status,0
  3928 ;; Tracked objects:
  3929 ;;		On entry : 0/0
  3930 ;;		On exit  : 0/0
  3931 ;;		Unchanged: 0/0
  3932 ;; Data sizes:     COMMON   BANK0   BANK1   BANK3   BANK2
  3933 ;;      Params:         0       0       0       0       0
  3934 ;;      Locals:         1       0       0       0       0
  3935 ;;      Temps:          2       0       0       0       0
  3936 ;;      Totals:         3       0       0       0       0
  3937 ;;Total ram usage:        3 bytes
  3938 ;; Hardware stack levels used:    1
  3939 ;; Hardware stack levels required when called:    2
  3940 ;; This function calls:
  3941 ;;		Nothing
  3942 ;; This function is called by:
  3943 ;;		_lcd_lincol
  3944 ;;		_lcd_init
  3945 ;;		_lcd_clr
  3946 ;; This function uses a non-reentrant model
  3947 ;;
  3948                           psect	text9,local,class=CODE,delta=2,merge=1,group=0
  3949                           	line	59
  3950                           global __ptext9
  3951                           __ptext9:	;psect for function _lcd_instReg
  3952  0198                     psect	text9
  3953                           	file	"lcd.c"
  3954                           	line	59
  3955                           	global	__size_of_lcd_instReg
  3956                           	__size_of_lcd_instReg	equ	__end_of_lcd_instReg-_lcd_instReg
  3957  008B                     	
  3958                           _lcd_instReg:	
  3959  0198                     ;incstack = 0
  3960                           	opt	stack 3
  3961                           ; Regs used in _lcd_instReg: [wreg+status,2+status,0]
  3962                           ;lcd_instReg@i stored from wreg
  3963                           	movwf	(lcd_instReg@i)
  3964  0198  00F4               	line	61
  3965                           	
  3966                           l1180:	
  3967  0199                     ;lcd.c: 59: void lcd_instReg( unsigned char i );lcd.c: 60: {;lcd.c: 61:     PORTDbits.RD
                                 2 = 0;
  3968                           	bcf	status, 5	;RP0=0, select bank0
  3969  0199  1283               	bcf	status, 6	;RP1=0, select bank0
  3970  019A  1303               	bcf	(8),2	;volatile
  3971  019B  1108               	line	62
  3972                           	
  3973                           l1182:	
  3974  019C                     ;lcd.c: 62:     PORTD = ((PORTD & 0x0F)|(i>>4<<4));
  3975                           	movf	(lcd_instReg@i),w
  3976  019C  0874               	movwf	(??_lcd_instReg+0)+0
  3977  019D  00F2               	movlw	04h
  3978  019E  3004               u615:
  3979  019F                     	clrc
  3980  019F  1003               	rrf	(??_lcd_instReg+0)+0,f
  3981  01A0  0CF2               	addlw	-1
  3982  01A1  3EFF               	skipz
  3983  01A2  1D03               	goto	u615
  3984  01A3  299F               	movf	0+(??_lcd_instReg+0)+0,w
  3985  01A4  0872               	movwf	(??_lcd_instReg+1)+0
  3986  01A5  00F3               	movlw	04h
  3987  01A6  3004               u625:
  3988  01A7                     	clrc
  3989  01A7  1003               	rlf	(??_lcd_instReg+1)+0,f
  3990  01A8  0DF3               	addlw	-1
  3991  01A9  3EFF               	skipz
  3992  01AA  1D03               	goto	u625
  3993  01AB  29A7               	movf	(8),w	;volatile
  3994  01AC  0808               	andlw	0Fh
  3995  01AD  390F               	iorwf	0+(??_lcd_instReg+1)+0,w
  3996  01AE  0473               	movwf	(8)	;volatile
  3997  01AF  0088               	line	64
  3998                           	
  3999                           l1184:	
  4000  01B0                     ;lcd.c: 64:     PORTDbits.RD3 = 0;
  4001                           	bcf	(8),3	;volatile
  4002  01B0  1188               	line	65
  4003                           ;lcd.c: 65:     if( i == 0x01 || i == 0x02 )
  4004                           		decf	((lcd_instReg@i)),w
  4005  01B1  0374               	btfsc	status,2
  4006  01B2  1903               	goto	u631
  4007  01B3  29B5               	goto	u630
  4008  01B4  29B6               u631:
  4009  01B5                     	goto	l1188
  4010  01B5  29BD               u630:
  4011  01B6                     	
  4012                           l1186:	
  4013  01B6                     		movlw	2
  4014  01B6  3002               	xorwf	((lcd_instReg@i)),w
  4015  01B7  0674               	btfss	status,2
  4016  01B8  1D03               	goto	u641
  4017  01B9  29BB               	goto	u640
  4018  01BA  29BC               u641:
  4019  01BB                     	goto	l1190
  4020  01BB  29C7               u640:
  4021  01BC                     	goto	l1188
  4022  01BC  29BD               	
  4023                           l49:	
  4024  01BD                     	line	66
  4025                           	
  4026                           l1188:	
  4027  01BD                     ;lcd.c: 66:         _delay((unsigned long)((2)*(4000000/4000.0)));
  4028                           	opt asmopt_push
  4029                           opt asmopt_off
  4030                           movlw	3
  4031  01BD  3003               movwf	((??_lcd_instReg+0)+0+1),f
  4032  01BE  00F3               	movlw	151
  4033  01BF  3097               movwf	((??_lcd_instReg+0)+0),f
  4034  01C0  00F2               	u1427:
  4035  01C1                     decfsz	((??_lcd_instReg+0)+0),f
  4036  01C1  0BF2               	goto	u1427
  4037  01C2  29C1               	decfsz	((??_lcd_instReg+0)+0+1),f
  4038  01C3  0BF3               	goto	u1427
  4039  01C4  29C1               	nop2
  4040  01C5  29C6               opt asmopt_pop
  4041                           
  4042                           	goto	l1192
  4043  01C6  29CC               	line	67
  4044                           ;lcd.c: 67:     else
  4045                           	
  4046                           l47:	
  4047  01C7                     	line	68
  4048                           	
  4049                           l1190:	
  4050  01C7                     ;lcd.c: 68:         _delay((unsigned long)((40)*(4000000/4000000.0)));
  4051                           	opt asmopt_push
  4052                           opt asmopt_off
  4053                           	movlw	13
  4054  01C7  300D               movwf	((??_lcd_instReg+0)+0),f
  4055  01C8  00F2               	u1437:
  4056  01C9                     decfsz	(??_lcd_instReg+0)+0,f
  4057  01C9  0BF2               	goto	u1437
  4058  01CA  29C9               opt asmopt_pop
  4059                           
  4060                           	goto	l1192
  4061  01CB  29CC               	
  4062                           l50:	
  4063  01CC                     	line	69
  4064                           	
  4065                           l1192:	
  4066  01CC                     ;lcd.c: 69:     PORTDbits.RD3 = 1;
  4067                           	bcf	status, 5	;RP0=0, select bank0
  4068  01CC  1283               	bcf	status, 6	;RP1=0, select bank0
  4069  01CD  1303               	bsf	(8),3	;volatile
  4070  01CE  1588               	line	72
  4071                           	
  4072                           l1194:	
  4073  01CF                     ;lcd.c: 72:     if( (i & 0xF0) == (0x20 | 0x00) )
  4074                           	movlw	low(0F0h)
  4075  01CF  30F0               	andwf	(lcd_instReg@i),w
  4076  01D0  0574               	movwf	(??_lcd_instReg+0)+0
  4077  01D1  00F2               		movlw	32
  4078  01D2  3020               	xorwf	((??_lcd_instReg+0)+0),w
  4079  01D3  0672               	btfss	status,2
  4080  01D4  1D03               	goto	u651
  4081  01D5  29D7               	goto	u650
  4082  01D6  29D8               u651:
  4083  01D7                     	goto	l1206
  4084  01D7  29F6               u650:
  4085  01D8                     	line	74
  4086                           	
  4087                           l1196:	
  4088  01D8                     ;lcd.c: 73:     {;lcd.c: 74:         PORTDbits.RD2 = 0;
  4089                           	bcf	(8),2	;volatile
  4090  01D8  1108               	line	75
  4091                           	
  4092                           l1198:	
  4093  01D9                     ;lcd.c: 75:         PORTD = ((PORTD & 0x0F)|(i>>4<<4));
  4094                           	movf	(lcd_instReg@i),w
  4095  01D9  0874               	movwf	(??_lcd_instReg+0)+0
  4096  01DA  00F2               	movlw	04h
  4097  01DB  3004               u665:
  4098  01DC                     	clrc
  4099  01DC  1003               	rrf	(??_lcd_instReg+0)+0,f
  4100  01DD  0CF2               	addlw	-1
  4101  01DE  3EFF               	skipz
  4102  01DF  1D03               	goto	u665
  4103  01E0  29DC               	movf	0+(??_lcd_instReg+0)+0,w
  4104  01E1  0872               	movwf	(??_lcd_instReg+1)+0
  4105  01E2  00F3               	movlw	04h
  4106  01E3  3004               u675:
  4107  01E4                     	clrc
  4108  01E4  1003               	rlf	(??_lcd_instReg+1)+0,f
  4109  01E5  0DF3               	addlw	-1
  4110  01E6  3EFF               	skipz
  4111  01E7  1D03               	goto	u675
  4112  01E8  29E4               	movf	(8),w	;volatile
  4113  01E9  0808               	andlw	0Fh
  4114  01EA  390F               	iorwf	0+(??_lcd_instReg+1)+0,w
  4115  01EB  0473               	movwf	(8)	;volatile
  4116  01EC  0088               	line	76
  4117                           	
  4118                           l1200:	
  4119  01ED                     ;lcd.c: 76:         PORTDbits.RD3 = 0;
  4120                           	bcf	(8),3	;volatile
  4121  01ED  1188               	line	77
  4122                           	
  4123                           l1202:	
  4124  01EE                     ;lcd.c: 77:         _delay((unsigned long)((40)*(4000000/4000000.0)));
  4125                           	opt asmopt_push
  4126                           opt asmopt_off
  4127                           	movlw	13
  4128  01EE  300D               movwf	((??_lcd_instReg+0)+0),f
  4129  01EF  00F2               	u1447:
  4130  01F0                     decfsz	(??_lcd_instReg+0)+0,f
  4131  01F0  0BF2               	goto	u1447
  4132  01F1  29F0               opt asmopt_pop
  4133                           
  4134                           	line	78
  4135                           	
  4136                           l1204:	
  4137  01F2                     ;lcd.c: 78:         PORTDbits.RD3 = 1;
  4138                           	bcf	status, 5	;RP0=0, select bank0
  4139  01F2  1283               	bcf	status, 6	;RP1=0, select bank0
  4140  01F3  1303               	bsf	(8),3	;volatile
  4141  01F4  1588               	goto	l1206
  4142  01F5  29F6               	line	79
  4143                           ;lcd.c: 79:     }
  4144                           	
  4145                           l51:	
  4146  01F6                     	line	81
  4147                           	
  4148                           l1206:	
  4149  01F6                     ;lcd.c: 81:     PORTDbits.RD2 = 0;
  4150                           	bcf	(8),2	;volatile
  4151  01F6  1108               	line	82
  4152                           	
  4153                           l1208:	
  4154  01F7                     ;lcd.c: 82:     PORTD = ((PORTD & 0x0F)|(i<<4));
  4155                           	movf	(lcd_instReg@i),w
  4156  01F7  0874               	movwf	(??_lcd_instReg+0)+0
  4157  01F8  00F2               	movlw	04h
  4158  01F9  3004               u685:
  4159  01FA                     	clrc
  4160  01FA  1003               	rlf	(??_lcd_instReg+0)+0,f
  4161  01FB  0DF2               	addlw	-1
  4162  01FC  3EFF               	skipz
  4163  01FD  1D03               	goto	u685
  4164  01FE  29FA               	movf	(8),w	;volatile
  4165  01FF  0808               	andlw	0Fh
  4166  0200  390F               	iorwf	0+(??_lcd_instReg+0)+0,w
  4167  0201  0472               	movwf	(8)	;volatile
  4168  0202  0088               	line	83
  4169                           	
  4170                           l1210:	
  4171  0203                     ;lcd.c: 83:     PORTDbits.RD3 = 0;
  4172                           	bcf	(8),3	;volatile
  4173  0203  1188               	line	84
  4174                           	
  4175                           l1212:	
  4176  0204                     ;lcd.c: 84:     if( i == 0x01 || i == 0x02 )
  4177                           		decf	((lcd_instReg@i)),w
  4178  0204  0374               	btfsc	status,2
  4179  0205  1903               	goto	u691
  4180  0206  2A08               	goto	u690
  4181  0207  2A09               u691:
  4182  0208                     	goto	l1216
  4183  0208  2A10               u690:
  4184  0209                     	
  4185                           l1214:	
  4186  0209                     		movlw	2
  4187  0209  3002               	xorwf	((lcd_instReg@i)),w
  4188  020A  0674               	btfss	status,2
  4189  020B  1D03               	goto	u701
  4190  020C  2A0E               	goto	u700
  4191  020D  2A0F               u701:
  4192  020E                     	goto	l1218
  4193  020E  2A1A               u700:
  4194  020F                     	goto	l1216
  4195  020F  2A10               	
  4196                           l54:	
  4197  0210                     	line	85
  4198                           	
  4199                           l1216:	
  4200  0210                     ;lcd.c: 85:         _delay((unsigned long)((2)*(4000000/4000.0)));
  4201                           	opt asmopt_push
  4202                           opt asmopt_off
  4203                           movlw	3
  4204  0210  3003               movwf	((??_lcd_instReg+0)+0+1),f
  4205  0211  00F3               	movlw	151
  4206  0212  3097               movwf	((??_lcd_instReg+0)+0),f
  4207  0213  00F2               	u1457:
  4208  0214                     decfsz	((??_lcd_instReg+0)+0),f
  4209  0214  0BF2               	goto	u1457
  4210  0215  2A14               	decfsz	((??_lcd_instReg+0)+0+1),f
  4211  0216  0BF3               	goto	u1457
  4212  0217  2A14               	nop2
  4213  0218  2A19               opt asmopt_pop
  4214                           
  4215                           	goto	l1220
  4216  0219  2A1F               	line	86
  4217                           ;lcd.c: 86:     else
  4218                           	
  4219                           l52:	
  4220  021A                     	line	87
  4221                           	
  4222                           l1218:	
  4223  021A                     ;lcd.c: 87:         _delay((unsigned long)((40)*(4000000/4000000.0)));
  4224                           	opt asmopt_push
  4225                           opt asmopt_off
  4226                           	movlw	13
  4227  021A  300D               movwf	((??_lcd_instReg+0)+0),f
  4228  021B  00F2               	u1467:
  4229  021C                     decfsz	(??_lcd_instReg+0)+0,f
  4230  021C  0BF2               	goto	u1467
  4231  021D  2A1C               opt asmopt_pop
  4232                           
  4233                           	goto	l1220
  4234  021E  2A1F               	
  4235                           l55:	
  4236  021F                     	line	88
  4237                           	
  4238                           l1220:	
  4239  021F                     ;lcd.c: 88:     PORTDbits.RD3 = 1;
  4240                           	bcf	status, 5	;RP0=0, select bank0
  4241  021F  1283               	bcf	status, 6	;RP1=0, select bank0
  4242  0220  1303               	bsf	(8),3	;volatile
  4243  0221  1588               	line	89
  4244                           	
  4245                           l56:	
  4246  0222                     	return
  4247  0222  0008               	opt stack 0
  4248                           GLOBAL	__end_of_lcd_instReg
  4249                           	__end_of_lcd_instReg:
  4250  0223                     	signat	_lcd_instReg,4217
  4251                           	global	_delay_ms
  4252                           
  4253 ;; *************** function _delay_ms *****************
  4254 ;; Defined at:
  4255 ;;		line 12 in file "delay.c"
  4256 ;; Parameters:    Size  Location     Type
  4257 ;;  t               2    2[COMMON] unsigned int 
  4258 ;; Auto vars:     Size  Location     Type
  4259 ;;		None
  4260 ;; Return value:  Size  Location     Type
  4261 ;;                  1    wreg      void 
  4262 ;; Registers used:
  4263 ;;		wreg, status,2, status,0
  4264 ;; Tracked objects:
  4265 ;;		On entry : 0/0
  4266 ;;		On exit  : 0/0
  4267 ;;		Unchanged: 0/0
  4268 ;; Data sizes:     COMMON   BANK0   BANK1   BANK3   BANK2
  4269 ;;      Params:         2       0       0       0       0
  4270 ;;      Locals:         0       0       0       0       0
  4271 ;;      Temps:          1       0       0       0       0
  4272 ;;      Totals:         3       0       0       0       0
  4273 ;;Total ram usage:        3 bytes
  4274 ;; Hardware stack levels used:    1
  4275 ;; Hardware stack levels required when called:    2
  4276 ;; This function calls:
  4277 ;;		Nothing
  4278 ;; This function is called by:
  4279 ;;		_lcd_init
  4280 ;; This function uses a non-reentrant model
  4281 ;;
  4282                           psect	text10,local,class=CODE,delta=2,merge=1,group=0
  4283                           	file	"delay.c"
  4284                           	line	12
  4285                           global __ptext10
  4286                           __ptext10:	;psect for function _delay_ms
  4287  0412                     psect	text10
  4288                           	file	"delay.c"
  4289                           	line	12
  4290                           	global	__size_of_delay_ms
  4291                           	__size_of_delay_ms	equ	__end_of_delay_ms-_delay_ms
  4292  0017                     	
  4293                           _delay_ms:	
  4294  0412                     ;incstack = 0
  4295                           	opt	stack 4
  4296                           ; Regs used in _delay_ms: [wreg+status,2+status,0]
  4297                           	line	14
  4298                           	
  4299                           l1222:	
  4300  0412                     ;delay.c: 12: void delay_ms( unsigned int t );delay.c: 13: {;delay.c: 14:     while( t )
                                 
  4301                           	goto	l1226
  4302  0412  2C21               	
  4303                           l32:	
  4304  0413                     	line	16
  4305                           	
  4306                           l1224:	
  4307  0413                     ;delay.c: 15:     {;delay.c: 16:         _delay((unsigned long)((1)*(4000000/4000.0)));

  4308                           	opt asmopt_push
  4309                           opt asmopt_off
  4310                           	movlw	199
  4311  0413  30C7               movwf	((??_delay_ms+0)+0),f
  4312  0414  00F4               	u1477:
  4313  0415                     	nop2
  4314  0415  2C16               decfsz	(??_delay_ms+0)+0,f
  4315  0416  0BF4               	goto	u1477
  4316  0417  2C15               	nop2
  4317  0418  2C19               	nop2
  4318  0419  2C1A               opt asmopt_pop
  4319                           
  4320                           	line	17
  4321                           ;delay.c: 17:         --t;
  4322                           	movlw	01h
  4323  041A  3001               	subwf	(delay_ms@t),f
  4324  041B  02F2               	movlw	0
  4325  041C  3000               	skipc
  4326  041D  1C03               	decf	(delay_ms@t+1),f
  4327  041E  03F3               	subwf	(delay_ms@t+1),f
  4328  041F  02F3               	goto	l1226
  4329  0420  2C21               	line	18
  4330                           ;delay.c: 18:     }
  4331                           	
  4332                           l31:	
  4333  0421                     	line	14
  4334                           	
  4335                           l1226:	
  4336  0421                     ;delay.c: 14:     while( t )
  4337                           	movf	((delay_ms@t)),w
  4338  0421  0872               iorwf	((delay_ms@t+1)),w
  4339  0422  0473               	btfss	status,2
  4340  0423  1D03               	goto	u711
  4341  0424  2C26               	goto	u710
  4342  0425  2C27               u711:
  4343  0426                     	goto	l1224
  4344  0426  2C13               u710:
  4345  0427                     	goto	l34
  4346  0427  2C28               	
  4347                           l33:	
  4348  0428                     	line	19
  4349                           	
  4350                           l34:	
  4351  0428                     	return
  4352  0428  0008               	opt stack 0
  4353                           GLOBAL	__end_of_delay_ms
  4354                           	__end_of_delay_ms:
  4355  0429                     	signat	_delay_ms,4217
  4356                           	global	___lwmod
  4357                           
  4358 ;; *************** function ___lwmod *****************
  4359 ;; Defined at:
  4360 ;;		line 5 in file "C:\Program Files (x86)\Microchip\xc8\v2.00\pic\sources\c90\common\lwmod.c"
  4361 ;; Parameters:    Size  Location     Type
  4362 ;;  divisor         2    2[COMMON] unsigned int 
  4363 ;;  dividend        2    4[COMMON] unsigned int 
  4364 ;; Auto vars:     Size  Location     Type
  4365 ;;  counter         1    7[COMMON] unsigned char 
  4366 ;; Return value:  Size  Location     Type
  4367 ;;                  2    2[COMMON] unsigned int 
  4368 ;; Registers used:
  4369 ;;		wreg, status,2, status,0
  4370 ;; Tracked objects:
  4371 ;;		On entry : 0/0
  4372 ;;		On exit  : 0/0
  4373 ;;		Unchanged: 0/0
  4374 ;; Data sizes:     COMMON   BANK0   BANK1   BANK3   BANK2
  4375 ;;      Params:         4       0       0       0       0
  4376 ;;      Locals:         1       0       0       0       0
  4377 ;;      Temps:          1       0       0       0       0
  4378 ;;      Totals:         6       0       0       0       0
  4379 ;;Total ram usage:        6 bytes
  4380 ;; Hardware stack levels used:    1
  4381 ;; Hardware stack levels required when called:    2
  4382 ;; This function calls:
  4383 ;;		Nothing
  4384 ;; This function is called by:
  4385 ;;		_main
  4386 ;; This function uses a non-reentrant model
  4387 ;;
  4388                           psect	text11,local,class=CODE,delta=2,merge=1,group=1
  4389                           	file	"C:\Program Files (x86)\Microchip\xc8\v2.00\pic\sources\c90\common\lwmod.c"
  4390                           	line	5
  4391                           global __ptext11
  4392                           __ptext11:	;psect for function ___lwmod
  4393  02F9                     psect	text11
  4394                           	file	"C:\Program Files (x86)\Microchip\xc8\v2.00\pic\sources\c90\common\lwmod.c"
  4395                           	line	5
  4396                           	global	__size_of___lwmod
  4397                           	__size_of___lwmod	equ	__end_of___lwmod-___lwmod
  4398  0041                     	
  4399                           ___lwmod:	
  4400  02F9                     ;incstack = 0
  4401                           	opt	stack 5
  4402                           ; Regs used in ___lwmod: [wreg+status,2+status,0]
  4403                           	line	12
  4404                           	
  4405                           l1430:	
  4406  02F9                     	movf	((___lwmod@divisor)),w
  4407  02F9  0872               iorwf	((___lwmod@divisor+1)),w
  4408  02FA  0473               	btfsc	status,2
  4409  02FB  1903               	goto	u1071
  4410  02FC  2AFE               	goto	u1070
  4411  02FD  2AFF               u1071:
  4412  02FE                     	goto	l1448
  4413  02FE  2B34               u1070:
  4414  02FF                     	line	13
  4415                           	
  4416                           l1432:	
  4417  02FF                     	clrf	(___lwmod@counter)
  4418  02FF  01F7               	incf	(___lwmod@counter),f
  4419  0300  0AF7               	line	14
  4420                           	goto	l1438
  4421  0301  2B0E               	
  4422                           l586:	
  4423  0302                     	line	15
  4424                           	
  4425                           l1434:	
  4426  0302                     	movlw	01h
  4427  0302  3001               	
  4428                           u1085:
  4429  0303                     	clrc
  4430  0303  1003               	rlf	(___lwmod@divisor),f
  4431  0304  0DF2               	rlf	(___lwmod@divisor+1),f
  4432  0305  0DF3               	addlw	-1
  4433  0306  3EFF               	skipz
  4434  0307  1D03               	goto	u1085
  4435  0308  2B03               	line	16
  4436                           	
  4437                           l1436:	
  4438  0309                     	movlw	low(01h)
  4439  0309  3001               	movwf	(??___lwmod+0)+0
  4440  030A  00F6               	movf	(??___lwmod+0)+0,w
  4441  030B  0876               	addwf	(___lwmod@counter),f
  4442  030C  07F7               	goto	l1438
  4443  030D  2B0E               	line	17
  4444                           	
  4445                           l585:	
  4446  030E                     	line	14
  4447                           	
  4448                           l1438:	
  4449  030E                     	btfss	(___lwmod@divisor+1),(15)&7
  4450  030E  1FF3               	goto	u1091
  4451  030F  2B11               	goto	u1090
  4452  0310  2B12               u1091:
  4453  0311                     	goto	l1434
  4454  0311  2B02               u1090:
  4455  0312                     	goto	l1440
  4456  0312  2B14               	
  4457                           l587:	
  4458  0313                     	goto	l1440
  4459  0313  2B14               	line	18
  4460                           	
  4461                           l588:	
  4462  0314                     	line	19
  4463                           	
  4464                           l1440:	
  4465  0314                     	movf	(___lwmod@divisor+1),w
  4466  0314  0873               	subwf	(___lwmod@dividend+1),w
  4467  0315  0275               	skipz
  4468  0316  1D03               	goto	u1105
  4469  0317  2B1A               	movf	(___lwmod@divisor),w
  4470  0318  0872               	subwf	(___lwmod@dividend),w
  4471  0319  0274               u1105:
  4472  031A                     	skipc
  4473  031A  1C03               	goto	u1101
  4474  031B  2B1D               	goto	u1100
  4475  031C  2B1E               u1101:
  4476  031D                     	goto	l1444
  4477  031D  2B25               u1100:
  4478  031E                     	line	20
  4479                           	
  4480                           l1442:	
  4481  031E                     	movf	(___lwmod@divisor),w
  4482  031E  0872               	subwf	(___lwmod@dividend),f
  4483  031F  02F4               	movf	(___lwmod@divisor+1),w
  4484  0320  0873               	skipc
  4485  0321  1C03               	decf	(___lwmod@dividend+1),f
  4486  0322  03F5               	subwf	(___lwmod@dividend+1),f
  4487  0323  02F5               	goto	l1444
  4488  0324  2B25               	
  4489                           l589:	
  4490  0325                     	line	21
  4491                           	
  4492                           l1444:	
  4493  0325                     	movlw	01h
  4494  0325  3001               	
  4495                           u1115:
  4496  0326                     	clrc
  4497  0326  1003               	rrf	(___lwmod@divisor+1),f
  4498  0327  0CF3               	rrf	(___lwmod@divisor),f
  4499  0328  0CF2               	addlw	-1
  4500  0329  3EFF               	skipz
  4501  032A  1D03               	goto	u1115
  4502  032B  2B26               	line	22
  4503                           	
  4504                           l1446:	
  4505  032C                     	movlw	01h
  4506  032C  3001               	subwf	(___lwmod@counter),f
  4507  032D  02F7               	btfss	status,2
  4508  032E  1D03               	goto	u1121
  4509  032F  2B31               	goto	u1120
  4510  0330  2B32               u1121:
  4511  0331                     	goto	l1440
  4512  0331  2B14               u1120:
  4513  0332                     	goto	l1448
  4514  0332  2B34               	
  4515                           l590:	
  4516  0333                     	goto	l1448
  4517  0333  2B34               	line	23
  4518                           	
  4519                           l584:	
  4520  0334                     	line	24
  4521                           	
  4522                           l1448:	
  4523  0334                     	movf	(___lwmod@dividend+1),w
  4524  0334  0875               	movwf	(?___lwmod+1)
  4525  0335  00F3               	movf	(___lwmod@dividend),w
  4526  0336  0874               	movwf	(?___lwmod)
  4527  0337  00F2               	goto	l591
  4528  0338  2B39               	
  4529                           l1450:	
  4530  0339                     	line	25
  4531                           	
  4532                           l591:	
  4533  0339                     	return
  4534  0339  0008               	opt stack 0
  4535                           GLOBAL	__end_of___lwmod
  4536                           	__end_of___lwmod:
  4537  033A                     	signat	___lwmod,8314
  4538                           	global	_T0_status
  4539                           
  4540 ;; *************** function _T0_status *****************
  4541 ;; Defined at:
  4542 ;;		line 59 in file "timer.c"
  4543 ;; Parameters:    Size  Location     Type
  4544 ;;		None
  4545 ;; Auto vars:     Size  Location     Type
  4546 ;;		None
  4547 ;; Return value:  Size  Location     Type
  4548 ;;                  2    2[COMMON] unsigned int 
  4549 ;; Registers used:
  4550 ;;		wreg
  4551 ;; Tracked objects:
  4552 ;;		On entry : 0/0
  4553 ;;		On exit  : 0/0
  4554 ;;		Unchanged: 0/0
  4555 ;; Data sizes:     COMMON   BANK0   BANK1   BANK3   BANK2
  4556 ;;      Params:         2       0       0       0       0
  4557 ;;      Locals:         0       0       0       0       0
  4558 ;;      Temps:          0       0       0       0       0
  4559 ;;      Totals:         2       0       0       0       0
  4560 ;;Total ram usage:        2 bytes
  4561 ;; Hardware stack levels used:    1
  4562 ;; Hardware stack levels required when called:    2
  4563 ;; This function calls:
  4564 ;;		Nothing
  4565 ;; This function is called by:
  4566 ;;		_main
  4567 ;; This function uses a non-reentrant model
  4568 ;;
  4569                           psect	text12,local,class=CODE,delta=2,merge=1,group=0
  4570                           	file	"timer.c"
  4571                           	line	59
  4572                           global __ptext12
  4573                           __ptext12:	;psect for function _T0_status
  4574  04A4                     psect	text12
  4575                           	file	"timer.c"
  4576                           	line	59
  4577                           	global	__size_of_T0_status
  4578                           	__size_of_T0_status	equ	__end_of_T0_status-_T0_status
  4579  0006                     	
  4580                           _T0_status:	
  4581  04A4                     ;incstack = 0
  4582                           	opt	stack 5
  4583                           ; Regs used in _T0_status: [wreg]
  4584                           	line	61
  4585                           	
  4586                           l1416:	
  4587  04A4                     ;timer.c: 61:     return( T0count );
  4588                           	movf	(_T0count+1),w
  4589  04A4  087B               	movwf	(?_T0_status+1)
  4590  04A5  00F3               	movf	(_T0count),w
  4591  04A6  087A               	movwf	(?_T0_status)
  4592  04A7  00F2               	goto	l167
  4593  04A8  2CA9               	
  4594                           l1418:	
  4595  04A9                     	line	62
  4596                           	
  4597                           l167:	
  4598  04A9                     	return
  4599  04A9  0008               	opt stack 0
  4600                           GLOBAL	__end_of_T0_status
  4601                           	__end_of_T0_status:
  4602  04AA                     	signat	_T0_status,90
  4603                           	global	_T0_start
  4604                           
  4605 ;; *************** function _T0_start *****************
  4606 ;; Defined at:
  4607 ;;		line 42 in file "timer.c"
  4608 ;; Parameters:    Size  Location     Type
  4609 ;;  c               2    2[COMMON] unsigned int 
  4610 ;; Auto vars:     Size  Location     Type
  4611 ;;		None
  4612 ;; Return value:  Size  Location     Type
  4613 ;;                  1    wreg      void 
  4614 ;; Registers used:
  4615 ;;		wreg
  4616 ;; Tracked objects:
  4617 ;;		On entry : 0/0
  4618 ;;		On exit  : 0/0
  4619 ;;		Unchanged: 0/0
  4620 ;; Data sizes:     COMMON   BANK0   BANK1   BANK3   BANK2
  4621 ;;      Params:         2       0       0       0       0
  4622 ;;      Locals:         0       0       0       0       0
  4623 ;;      Temps:          0       0       0       0       0
  4624 ;;      Totals:         2       0       0       0       0
  4625 ;;Total ram usage:        2 bytes
  4626 ;; Hardware stack levels used:    1
  4627 ;; Hardware stack levels required when called:    2
  4628 ;; This function calls:
  4629 ;;		Nothing
  4630 ;; This function is called by:
  4631 ;;		_main
  4632 ;; This function uses a non-reentrant model
  4633 ;;
  4634                           psect	text13,local,class=CODE,delta=2,merge=1,group=0
  4635                           	line	42
  4636                           global __ptext13
  4637                           __ptext13:	;psect for function _T0_start
  4638  049A                     psect	text13
  4639                           	file	"timer.c"
  4640                           	line	42
  4641                           	global	__size_of_T0_start
  4642                           	__size_of_T0_start	equ	__end_of_T0_start-_T0_start
  4643  000A                     	
  4644                           _T0_start:	
  4645  049A                     ;incstack = 0
  4646                           	opt	stack 5
  4647                           ; Regs used in _T0_start: [wreg]
  4648                           	line	44
  4649                           	
  4650                           l1366:	
  4651  049A                     ;timer.c: 42: void T0_start( unsigned int c );timer.c: 43: {;timer.c: 44:     TMR0 = (25
                                 6-250);
  4652                           	movlw	low(06h)
  4653  049A  3006               	bcf	status, 5	;RP0=0, select bank0
  4654  049B  1283               	bcf	status, 6	;RP1=0, select bank0
  4655  049C  1303               	movwf	(1)	;volatile
  4656  049D  0081               	line	45
  4657                           ;timer.c: 45:     T0count = c;
  4658                           	movf	(T0_start@c+1),w
  4659  049E  0873               	movwf	(_T0count+1)
  4660  049F  00FB               	movf	(T0_start@c),w
  4661  04A0  0872               	movwf	(_T0count)
  4662  04A1  00FA               	line	46
  4663                           	
  4664                           l1368:	
  4665  04A2                     ;timer.c: 46:     INTCONbits.T0IE = 1;
  4666                           	bsf	(11),5	;volatile
  4667  04A2  168B               	line	47
  4668                           	
  4669                           l158:	
  4670  04A3                     	return
  4671  04A3  0008               	opt stack 0
  4672                           GLOBAL	__end_of_T0_start
  4673                           	__end_of_T0_start:
  4674  04A4                     	signat	_T0_start,4217
  4675                           	global	_T0_init
  4676                           
  4677 ;; *************** function _T0_init *****************
  4678 ;; Defined at:
  4679 ;;		line 21 in file "timer.c"
  4680 ;; Parameters:    Size  Location     Type
  4681 ;;		None
  4682 ;; Auto vars:     Size  Location     Type
  4683 ;;		None
  4684 ;; Return value:  Size  Location     Type
  4685 ;;                  1    wreg      void 
  4686 ;; Registers used:
  4687 ;;		wreg, status,2, status,0
  4688 ;; Tracked objects:
  4689 ;;		On entry : 0/0
  4690 ;;		On exit  : 0/0
  4691 ;;		Unchanged: 0/0
  4692 ;; Data sizes:     COMMON   BANK0   BANK1   BANK3   BANK2
  4693 ;;      Params:         0       0       0       0       0
  4694 ;;      Locals:         0       0       0       0       0
  4695 ;;      Temps:          0       0       0       0       0
  4696 ;;      Totals:         0       0       0       0       0
  4697 ;;Total ram usage:        0 bytes
  4698 ;; Hardware stack levels used:    1
  4699 ;; Hardware stack levels required when called:    2
  4700 ;; This function calls:
  4701 ;;		Nothing
  4702 ;; This function is called by:
  4703 ;;		_main
  4704 ;; This function uses a non-reentrant model
  4705 ;;
  4706                           psect	text14,local,class=CODE,delta=2,merge=1,group=0
  4707                           	line	21
  4708                           global __ptext14
  4709                           __ptext14:	;psect for function _T0_init
  4710  0462                     psect	text14
  4711                           	file	"timer.c"
  4712                           	line	21
  4713                           	global	__size_of_T0_init
  4714                           	__size_of_T0_init	equ	__end_of_T0_init-_T0_init
  4715  0010                     	
  4716                           _T0_init:	
  4717  0462                     ;incstack = 0
  4718                           	opt	stack 5
  4719                           ; Regs used in _T0_init: [wreg+status,2+status,0]
  4720                           	line	23
  4721                           	
  4722                           l1354:	
  4723  0462                     ;timer.c: 23:     INTCONbits.GIE = 0;
  4724                           	bcf	(11),7	;volatile
  4725  0462  138B               	line	24
  4726                           ;timer.c: 24:     OPTION_REGbits.PSA = 0;
  4727                           	bsf	status, 5	;RP0=1, select bank1
  4728  0463  1683               	bcf	status, 6	;RP1=0, select bank1
  4729  0464  1303               	bcf	(129)^080h,3	;volatile
  4730  0465  1181               	line	25
  4731                           	
  4732                           l1356:	
  4733  0466                     ;timer.c: 25:     OPTION_REGbits.PS = 0x1;
  4734                           	movf	(129)^080h,w	;volatile
  4735  0466  0801               	andlw	not (((1<<3)-1)<<0)
  4736  0467  39F8               	iorlw	(01h & ((1<<3)-1))<<0
  4737  0468  3801               	movwf	(129)^080h	;volatile
  4738  0469  0081               	line	26
  4739                           	
  4740                           l1358:	
  4741  046A                     ;timer.c: 26:     OPTION_REGbits.T0CS = 0;
  4742                           	bcf	(129)^080h,5	;volatile
  4743  046A  1281               	line	27
  4744                           	
  4745                           l1360:	
  4746  046B                     ;timer.c: 27:     TMR0 = (256-250);
  4747                           	movlw	low(06h)
  4748  046B  3006               	bcf	status, 5	;RP0=0, select bank0
  4749  046C  1283               	bcf	status, 6	;RP1=0, select bank0
  4750  046D  1303               	movwf	(1)	;volatile
  4751  046E  0081               	line	28
  4752                           	
  4753                           l1362:	
  4754  046F                     ;timer.c: 28:     INTCONbits.T0IE = 0;
  4755                           	bcf	(11),5	;volatile
  4756  046F  128B               	line	29
  4757                           	
  4758                           l1364:	
  4759  0470                     ;timer.c: 29:     INTCONbits.GIE = 1;
  4760                           	bsf	(11),7	;volatile
  4761  0470  178B               	line	30
  4762                           	
  4763                           l151:	
  4764  0471                     	return
  4765  0471  0008               	opt stack 0
  4766                           GLOBAL	__end_of_T0_init
  4767                           	__end_of_T0_init:
  4768  0472                     	signat	_T0_init,89
  4769                           	global	_ilsr
  4770                           
  4771 ;; *************** function _ilsr *****************
  4772 ;; Defined at:
  4773 ;;		line 13 in file "interrupt.c"
  4774 ;; Parameters:    Size  Location     Type
  4775 ;;		None
  4776 ;; Auto vars:     Size  Location     Type
  4777 ;;		None
  4778 ;; Return value:  Size  Location     Type
  4779 ;;                  1    wreg      void 
  4780 ;; Registers used:
  4781 ;;		wreg, status,2, status,0, pclath, cstack
  4782 ;; Tracked objects:
  4783 ;;		On entry : 0/0
  4784 ;;		On exit  : 0/0
  4785 ;;		Unchanged: 0/0
  4786 ;; Data sizes:     COMMON   BANK0   BANK1   BANK3   BANK2
  4787 ;;      Params:         0       0       0       0       0
  4788 ;;      Locals:         0       0       0       0       0
  4789 ;;      Temps:          2       0       0       0       0
  4790 ;;      Totals:         2       0       0       0       0
  4791 ;;Total ram usage:        2 bytes
  4792 ;; Hardware stack levels used:    1
  4793 ;; Hardware stack levels required when called:    1
  4794 ;; This function calls:
  4795 ;;		_T0_int
  4796 ;;		_T1_int
  4797 ;;		_T2_int
  4798 ;; This function is called by:
  4799 ;;		Interrupt level 1
  4800 ;; This function uses a non-reentrant model
  4801 ;;
  4802                           psect	text15,local,class=CODE,delta=2,merge=1,group=0
  4803                           	file	"interrupt.c"
  4804                           	line	13
  4805                           global __ptext15
  4806                           __ptext15:	;psect for function _ilsr
  4807  03E6                     psect	text15
  4808                           	file	"interrupt.c"
  4809                           	line	13
  4810                           	global	__size_of_ilsr
  4811                           	__size_of_ilsr	equ	__end_of_ilsr-_ilsr
  4812  002C                     	
  4813                           _ilsr:	
  4814  03E6                     ;incstack = 0
  4815                           	opt	stack 3
  4816                           ; Regs used in _ilsr: [wreg+status,2+status,0+pclath+cstack]
  4817                           psect	intentry,class=CODE,delta=2
  4818                           global __pintentry
  4819                           __pintentry:
  4820  0004                     global interrupt_function
  4821                           interrupt_function:
  4822  0004                     	global saved_w
  4823                           	saved_w	set	btemp+0
  4824  007E                     	movwf	saved_w
  4825  0004  00FE               	swapf	status,w
  4826  0005  0E03               	movwf	(??_ilsr+0)
  4827  0006  00F0               	movf	pclath,w
  4828  0007  080A               	movwf	(??_ilsr+1)
  4829  0008  00F1               	ljmp	_ilsr
  4830  0009  120A  118A  2BE6   psect	text15
  4831                           	line	15
  4832                           	
  4833                           i1l1488:	
  4834  03E6                     ;interrupt.c: 15:     if( INTCONbits.T0IF )
  4835                           	btfss	(11),2	;volatile
  4836  03E6  1D0B               	goto	u115_21
  4837  03E7  2BE9               	goto	u115_20
  4838  03E8  2BEA               u115_21:
  4839  03E9                     	goto	i1l1494
  4840  03E9  2BF1               u115_20:
  4841  03EA                     	line	17
  4842                           	
  4843                           i1l1490:	
  4844  03EA                     ;interrupt.c: 16:     {;interrupt.c: 17:         INTCONbits.T0IF = 0;
  4845                           	bcf	(11),2	;volatile
  4846  03EA  110B               	line	18
  4847                           	
  4848                           i1l1492:	
  4849  03EB                     ;interrupt.c: 18:         T0_int();
  4850                           	fcall	_T0_int
  4851  03EB  120A  118A  2450  120A  118A  	goto	i1l1494
  4852  03F0  2BF1               	line	19
  4853                           ;interrupt.c: 19:     }
  4854                           	
  4855                           i1l220:	
  4856  03F1                     	line	20
  4857                           	
  4858                           i1l1494:	
  4859  03F1                     ;interrupt.c: 20:     if( PIR1bits.TMR1IF )
  4860                           	bcf	status, 5	;RP0=0, select bank0
  4861  03F1  1283               	bcf	status, 6	;RP1=0, select bank0
  4862  03F2  1303               	btfss	(12),0	;volatile
  4863  03F3  1C0C               	goto	u116_21
  4864  03F4  2BF6               	goto	u116_20
  4865  03F5  2BF7               u116_21:
  4866  03F6                     	goto	i1l1500
  4867  03F6  2BFE               u116_20:
  4868  03F7                     	line	22
  4869                           	
  4870                           i1l1496:	
  4871  03F7                     ;interrupt.c: 21:     {;interrupt.c: 22:         PIR1bits.TMR1IF = 0;
  4872                           	bcf	(12),0	;volatile
  4873  03F7  100C               	line	23
  4874                           	
  4875                           i1l1498:	
  4876  03F8                     ;interrupt.c: 23:         T1_int();
  4877                           	fcall	_T1_int
  4878  03F8  120A  118A  2429  120A  118A  	goto	i1l1500
  4879  03FD  2BFE               	line	24
  4880                           ;interrupt.c: 24:     }
  4881                           	
  4882                           i1l221:	
  4883  03FE                     	line	25
  4884                           	
  4885                           i1l1500:	
  4886  03FE                     ;interrupt.c: 25:     if( PIR1bits.TMR2IF )
  4887                           	bcf	status, 5	;RP0=0, select bank0
  4888  03FE  1283               	bcf	status, 6	;RP1=0, select bank0
  4889  03FF  1303               	btfss	(12),1	;volatile
  4890  0400  1C8C               	goto	u117_21
  4891  0401  2C03               	goto	u117_20
  4892  0402  2C04               u117_21:
  4893  0403                     	goto	i1l223
  4894  0403  2C0B               u117_20:
  4895  0404                     	line	27
  4896                           	
  4897                           i1l1502:	
  4898  0404                     ;interrupt.c: 26:     {;interrupt.c: 27:         PIR1bits.TMR2IF = 0;
  4899                           	bcf	(12),1	;volatile
  4900  0404  108C               	line	28
  4901                           	
  4902                           i1l1504:	
  4903  0405                     ;interrupt.c: 28:         T2_int();
  4904                           	fcall	_T2_int
  4905  0405  120A  118A  2472  120A  118A  	goto	i1l223
  4906  040A  2C0B               	line	29
  4907                           ;interrupt.c: 29:     }
  4908                           	
  4909                           i1l222:	
  4910  040B                     	line	30
  4911                           	
  4912                           i1l223:	
  4913  040B                     	movf	(??_ilsr+1),w
  4914  040B  0871               	movwf	pclath
  4915  040C  008A               	swapf	(??_ilsr+0)^0FFFFFF80h,w
  4916  040D  0E70               	movwf	status
  4917  040E  0083               	swapf	saved_w,f
  4918  040F  0EFE               	swapf	saved_w,w
  4919  0410  0E7E               	retfie
  4920  0411  0009               	opt stack 0
  4921                           GLOBAL	__end_of_ilsr
  4922                           	__end_of_ilsr:
  4923  0412                     	signat	_ilsr,89
  4924                           	global	_T2_int
  4925                           
  4926 ;; *************** function _T2_int *****************
  4927 ;; Defined at:
  4928 ;;		line 132 in file "timer.c"
  4929 ;; Parameters:    Size  Location     Type
  4930 ;;		None
  4931 ;; Auto vars:     Size  Location     Type
  4932 ;;		None
  4933 ;; Return value:  Size  Location     Type
  4934 ;;                  1    wreg      void 
  4935 ;; Registers used:
  4936 ;;		wreg, status,2, status,0
  4937 ;; Tracked objects:
  4938 ;;		On entry : 0/0
  4939 ;;		On exit  : 0/0
  4940 ;;		Unchanged: 0/0
  4941 ;; Data sizes:     COMMON   BANK0   BANK1   BANK3   BANK2
  4942 ;;      Params:         0       0       0       0       0
  4943 ;;      Locals:         0       0       0       0       0
  4944 ;;      Temps:          0       0       0       0       0
  4945 ;;      Totals:         0       0       0       0       0
  4946 ;;Total ram usage:        0 bytes
  4947 ;; Hardware stack levels used:    1
  4948 ;; This function calls:
  4949 ;;		Nothing
  4950 ;; This function is called by:
  4951 ;;		_ilsr
  4952 ;; This function uses a non-reentrant model
  4953 ;;
  4954                           psect	text16,local,class=CODE,delta=2,merge=1,group=0
  4955                           	file	"timer.c"
  4956                           	line	132
  4957                           global __ptext16
  4958                           __ptext16:	;psect for function _T2_int
  4959  0472                     psect	text16
  4960                           	file	"timer.c"
  4961                           	line	132
  4962                           	global	__size_of_T2_int
  4963                           	__size_of_T2_int	equ	__end_of_T2_int-_T2_int
  4964  0010                     	
  4965                           _T2_int:	
  4966  0472                     ;incstack = 0
  4967                           	opt	stack 3
  4968                           ; Regs used in _T2_int: [wreg+status,2+status,0]
  4969                           	line	134
  4970                           	
  4971                           i1l1426:	
  4972  0472                     ;timer.c: 134:     if( T2count )
  4973                           	bcf	status, 5	;RP0=0, select bank0
  4974  0472  1283               	bcf	status, 6	;RP1=0, select bank0
  4975  0473  1303               	movf	((_T2count)),w
  4976  0474  0833               iorwf	((_T2count+1)),w
  4977  0475  0434               	btfsc	status,2
  4978  0476  1903               	goto	u106_21
  4979  0477  2C79               	goto	u106_20
  4980  0478  2C7A               u106_21:
  4981  0479                     	goto	i1l193
  4982  0479  2C81               u106_20:
  4983  047A                     	line	136
  4984                           	
  4985                           i1l1428:	
  4986  047A                     ;timer.c: 135:     {;timer.c: 136:         --T2count;
  4987                           	movlw	01h
  4988  047A  3001               	subwf	(_T2count),f
  4989  047B  02B3               	movlw	0
  4990  047C  3000               	skipc
  4991  047D  1C03               	decf	(_T2count+1),f
  4992  047E  03B4               	subwf	(_T2count+1),f
  4993  047F  02B4               	goto	i1l193
  4994  0480  2C81               	line	137
  4995                           ;timer.c: 137:     }
  4996                           	
  4997                           i1l192:	
  4998  0481                     	line	138
  4999                           	
  5000                           i1l193:	
  5001  0481                     	return
  5002  0481  0008               	opt stack 0
  5003                           GLOBAL	__end_of_T2_int
  5004                           	__end_of_T2_int:
  5005  0482                     	signat	_T2_int,89
  5006                           	global	_T1_int
  5007                           
  5008 ;; *************** function _T1_int *****************
  5009 ;; Defined at:
  5010 ;;		line 80 in file "timer.c"
  5011 ;; Parameters:    Size  Location     Type
  5012 ;;		None
  5013 ;; Auto vars:     Size  Location     Type
  5014 ;;		None
  5015 ;; Return value:  Size  Location     Type
  5016 ;;                  1    wreg      void 
  5017 ;; Registers used:
  5018 ;;		wreg, status,2, status,0
  5019 ;; Tracked objects:
  5020 ;;		On entry : 0/0
  5021 ;;		On exit  : 0/0
  5022 ;;		Unchanged: 0/0
  5023 ;; Data sizes:     COMMON   BANK0   BANK1   BANK3   BANK2
  5024 ;;      Params:         0       0       0       0       0
  5025 ;;      Locals:         0       0       0       0       0
  5026 ;;      Temps:          0       0       0       0       0
  5027 ;;      Totals:         0       0       0       0       0
  5028 ;;Total ram usage:        0 bytes
  5029 ;; Hardware stack levels used:    1
  5030 ;; This function calls:
  5031 ;;		Nothing
  5032 ;; This function is called by:
  5033 ;;		_ilsr
  5034 ;; This function uses a non-reentrant model
  5035 ;;
  5036                           psect	text17,local,class=CODE,delta=2,merge=1,group=0
  5037                           	line	80
  5038                           global __ptext17
  5039                           __ptext17:	;psect for function _T1_int
  5040  0429                     psect	text17
  5041                           	file	"timer.c"
  5042                           	line	80
  5043                           	global	__size_of_T1_int
  5044                           	__size_of_T1_int	equ	__end_of_T1_int-_T1_int
  5045  0014                     	
  5046                           _T1_int:	
  5047  0429                     ;incstack = 0
  5048                           	opt	stack 3
  5049                           ; Regs used in _T1_int: [wreg+status,2+status,0]
  5050                           	line	82
  5051                           	
  5052                           i1l1420:	
  5053  0429                     ;timer.c: 82:     TMR1H = ((0xFFFF-1000+1) >> 8) & 0x00FF;
  5054                           	movlw	low(0FCh)
  5055  0429  30FC               	bcf	status, 5	;RP0=0, select bank0
  5056  042A  1283               	bcf	status, 6	;RP1=0, select bank0
  5057  042B  1303               	movwf	(15)	;volatile
  5058  042C  008F               	line	83
  5059                           ;timer.c: 83:     TMR1L = ((0xFFFF-1000+1) >> 0) & 0x00FF;
  5060                           	movlw	low(018h)
  5061  042D  3018               	movwf	(14)	;volatile
  5062  042E  008E               	line	84
  5063                           	
  5064                           i1l1422:	
  5065  042F                     ;timer.c: 84:     if( T1count )
  5066                           	movf	((_T1count)),w
  5067  042F  0835               iorwf	((_T1count+1)),w
  5068  0430  0436               	btfsc	status,2
  5069  0431  1903               	goto	u105_21
  5070  0432  2C34               	goto	u105_20
  5071  0433  2C35               u105_21:
  5072  0434                     	goto	i1l174
  5073  0434  2C3C               u105_20:
  5074  0435                     	line	86
  5075                           	
  5076                           i1l1424:	
  5077  0435                     ;timer.c: 85:     {;timer.c: 86:         --T1count;
  5078                           	movlw	01h
  5079  0435  3001               	subwf	(_T1count),f
  5080  0436  02B5               	movlw	0
  5081  0437  3000               	skipc
  5082  0438  1C03               	decf	(_T1count+1),f
  5083  0439  03B6               	subwf	(_T1count+1),f
  5084  043A  02B6               	goto	i1l174
  5085  043B  2C3C               	line	87
  5086                           ;timer.c: 87:     }
  5087                           	
  5088                           i1l173:	
  5089  043C                     	line	88
  5090                           	
  5091                           i1l174:	
  5092  043C                     	return
  5093  043C  0008               	opt stack 0
  5094                           GLOBAL	__end_of_T1_int
  5095                           	__end_of_T1_int:
  5096  043D                     	signat	_T1_int,89
  5097                           	global	_T0_int
  5098                           
  5099 ;; *************** function _T0_int *****************
  5100 ;; Defined at:
  5101 ;;		line 33 in file "timer.c"
  5102 ;; Parameters:    Size  Location     Type
  5103 ;;		None
  5104 ;; Auto vars:     Size  Location     Type
  5105 ;;		None
  5106 ;; Return value:  Size  Location     Type
  5107 ;;                  1    wreg      void 
  5108 ;; Registers used:
  5109 ;;		wreg, status,2, status,0
  5110 ;; Tracked objects:
  5111 ;;		On entry : 0/0
  5112 ;;		On exit  : 0/0
  5113 ;;		Unchanged: 0/0
  5114 ;; Data sizes:     COMMON   BANK0   BANK1   BANK3   BANK2
  5115 ;;      Params:         0       0       0       0       0
  5116 ;;      Locals:         0       0       0       0       0
  5117 ;;      Temps:          0       0       0       0       0
  5118 ;;      Totals:         0       0       0       0       0
  5119 ;;Total ram usage:        0 bytes
  5120 ;; Hardware stack levels used:    1
  5121 ;; This function calls:
  5122 ;;		Nothing
  5123 ;; This function is called by:
  5124 ;;		_ilsr
  5125 ;; This function uses a non-reentrant model
  5126 ;;
  5127                           psect	text18,local,class=CODE,delta=2,merge=1,group=0
  5128                           	line	33
  5129                           global __ptext18
  5130                           __ptext18:	;psect for function _T0_int
  5131  0450                     psect	text18
  5132                           	file	"timer.c"
  5133                           	line	33
  5134                           	global	__size_of_T0_int
  5135                           	__size_of_T0_int	equ	__end_of_T0_int-_T0_int
  5136  0012                     	
  5137                           _T0_int:	
  5138  0450                     ;incstack = 0
  5139                           	opt	stack 3
  5140                           ; Regs used in _T0_int: [wreg+status,2+status,0]
  5141                           	line	35
  5142                           	
  5143                           i1l1036:	
  5144  0450                     ;timer.c: 35:     TMR0 = (256-250);
  5145                           	movlw	low(06h)
  5146  0450  3006               	bcf	status, 5	;RP0=0, select bank0
  5147  0451  1283               	bcf	status, 6	;RP1=0, select bank0
  5148  0452  1303               	movwf	(1)	;volatile
  5149  0453  0081               	line	36
  5150                           	
  5151                           i1l1038:	
  5152  0454                     ;timer.c: 36:     if( T0count )
  5153                           	movf	((_T0count)),w
  5154  0454  087A               iorwf	((_T0count+1)),w
  5155  0455  047B               	btfsc	status,2
  5156  0456  1903               	goto	u45_21
  5157  0457  2C59               	goto	u45_20
  5158  0458  2C5A               u45_21:
  5159  0459                     	goto	i1l155
  5160  0459  2C61               u45_20:
  5161  045A                     	line	38
  5162                           	
  5163                           i1l1040:	
  5164  045A                     ;timer.c: 37:     {;timer.c: 38:         --T0count;
  5165                           	movlw	01h
  5166  045A  3001               	subwf	(_T0count),f
  5167  045B  02FA               	movlw	0
  5168  045C  3000               	skipc
  5169  045D  1C03               	decf	(_T0count+1),f
  5170  045E  03FB               	subwf	(_T0count+1),f
  5171  045F  02FB               	goto	i1l155
  5172  0460  2C61               	line	39
  5173                           ;timer.c: 39:     }
  5174                           	
  5175                           i1l154:	
  5176  0461                     	line	40
  5177                           	
  5178                           i1l155:	
  5179  0461                     	return
  5180  0461  0008               	opt stack 0
  5181                           GLOBAL	__end_of_T0_int
  5182                           	__end_of_T0_int:
  5183  0462                     	signat	_T0_int,89
  5184                           global	___latbits
  5185                           ___latbits	equ	2
  5186  0002                     	global	btemp
  5187                           	btemp set 07Eh
  5188  007E                     
  5189                           	DABS	1,126,2	;btemp
  5190                           	global	wtemp0
  5191                           	wtemp0 set btemp+0
  5192  007E                     	end


Data Sizes:
    Strings     7
    Constant    0
    Data        0
    BSS         10
    Persistent  0
    Stack       0

Auto Spaces:
    Space          Size  Autos    Used
    COMMON           14     10      12
    BANK0            80     19      27
    BANK1            80      0       0
    BANK3            96      0       0
    BANK2            96      0       0

Pointer List with Targets:

    lcd_print@str	PTR const unsigned char  size(1) Largest target is 7
		 -> STR_1(CODE[7]), 


Critical Paths under _main in COMMON

    _main->_lcd_print
    _lcd_print->_lcd_lincol
    _lcd_num->___awmod
    _lcd_lincol->_lcd_instReg
    _lcd_init->_delay_ms
    _lcd_init->_lcd_instReg

Critical Paths under _ilsr in COMMON

    None.

Critical Paths under _main in BANK0

    _main->_lcd_num
    _lcd_num->___awdiv

Critical Paths under _ilsr in BANK0

    None.

Critical Paths under _main in BANK1

    None.

Critical Paths under _ilsr in BANK1

    None.

Critical Paths under _main in BANK3

    None.

Critical Paths under _ilsr in BANK3

    None.

Critical Paths under _main in BANK2

    None.

Critical Paths under _ilsr in BANK2

    None.

Call Graph Tables:

 ---------------------------------------------------------------------------------
 (Depth) Function   	        Calls       Base Space   Used Autos Params    Refs
 ---------------------------------------------------------------------------------
 (0) _main                                                 3     3      0    5018
                                             16 BANK0      3     3      0
                            _T0_init
                           _T0_start
                          _T0_status
                            ___lwmod
                           _lcd_init
                            _lcd_num
                          _lcd_print
                           _prs_init
 ---------------------------------------------------------------------------------
 (1) _prs_init                                             0     0      0       0
 ---------------------------------------------------------------------------------
 (1) _lcd_print                                            5     3      2     760
                                              8 COMMON     2     0      2
                                              0 BANK0      3     3      0
                        _lcd_dataReg
                         _lcd_lincol
 ---------------------------------------------------------------------------------
 (1) _lcd_num                                             12     8      4    3216
                                              4 BANK0     12     8      4
                            ___awdiv
                            ___awmod
                        _lcd_dataReg
                         _lcd_lincol
 ---------------------------------------------------------------------------------
 (2) _lcd_lincol                                           3     2      1     372
                                              5 COMMON     3     2      1
                        _lcd_instReg
 ---------------------------------------------------------------------------------
 (2) _lcd_dataReg                                          3     3      0      44
                                              2 COMMON     3     3      0
 ---------------------------------------------------------------------------------
 (2) ___awmod                                              7     3      4     448
                                              2 COMMON     7     3      4
 ---------------------------------------------------------------------------------
 (2) ___awdiv                                              9     5      4    1165
                                              2 COMMON     5     1      4
                                              0 BANK0      4     4      0
 ---------------------------------------------------------------------------------
 (1) _lcd_init                                             0     0      0     427
                           _delay_ms
                        _lcd_instReg
 ---------------------------------------------------------------------------------
 (3) _lcd_instReg                                          3     3      0     176
                                              2 COMMON     3     3      0
 ---------------------------------------------------------------------------------
 (2) _delay_ms                                             3     1      2     251
                                              2 COMMON     3     1      2
 ---------------------------------------------------------------------------------
 (1) ___lwmod                                              6     2      4     311
                                              2 COMMON     6     2      4
 ---------------------------------------------------------------------------------
 (1) _T0_status                                            2     0      2       0
                                              2 COMMON     2     0      2
 ---------------------------------------------------------------------------------
 (1) _T0_start                                             2     0      2     174
                                              2 COMMON     2     0      2
 ---------------------------------------------------------------------------------
 (1) _T0_init                                              0     0      0       0
 ---------------------------------------------------------------------------------
 Estimated maximum stack depth 3
 ---------------------------------------------------------------------------------
 (Depth) Function   	        Calls       Base Space   Used Autos Params    Refs
 ---------------------------------------------------------------------------------
 (4) _ilsr                                                 2     2      0       0
                                              0 COMMON     2     2      0
                             _T0_int
                             _T1_int
                             _T2_int
 ---------------------------------------------------------------------------------
 (5) _T2_int                                               0     0      0       0
 ---------------------------------------------------------------------------------
 (5) _T1_int                                               0     0      0       0
 ---------------------------------------------------------------------------------
 (5) _T0_int                                               0     0      0       0
 ---------------------------------------------------------------------------------
 Estimated maximum stack depth 5
 ---------------------------------------------------------------------------------

 Call Graph Graphs:

 _main (ROOT)
   _T0_init
   _T0_start
   _T0_status
   ___lwmod
   _lcd_init
     _delay_ms
     _lcd_instReg
   _lcd_num
     ___awdiv
     ___awmod
     _lcd_dataReg
     _lcd_lincol
       _lcd_instReg
   _lcd_print
     _lcd_dataReg
     _lcd_lincol
       _lcd_instReg
   _prs_init

 _ilsr (ROOT)
   _T0_int
   _T1_int
   _T2_int

 Address spaces:
Name               Size   Autos  Total    Cost      Usage
BITCOMMON            E      0       0       0        0.0%
EEDATA             100      0       0       0        0.0%
NULL                 0      0       0       0        0.0%
CODE                 0      0       0       0        0.0%
COMMON               E      A       C       1       85.7%
BITSFR0              0      0       0       1        0.0%
SFR0                 0      0       0       1        0.0%
BITSFR1              0      0       0       2        0.0%
SFR1                 0      0       0       2        0.0%
STACK                0      0       0       2        0.0%
ABS                  0      0      27       3        0.0%
BITBANK0            50      0       0       4        0.0%
BITSFR3              0      0       0       4        0.0%
SFR3                 0      0       0       4        0.0%
BANK0               50     13      1B       5       33.8%
BITSFR2              0      0       0       5        0.0%
SFR2                 0      0       0       5        0.0%
BITBANK1            50      0       0       6        0.0%
BANK1               50      0       0       7        0.0%
BITBANK3            60      0       0       8        0.0%
BANK3               60      0       0       9        0.0%
BITBANK2            60      0       0      10        0.0%
BANK2               60      0       0      11        0.0%
DATA                 0      0      27      12        0.0%


Microchip Technology PIC Macro Assembler V2.00 build -1524193055 
Symbol Table                                                                                   Tue Aug 23 10:04:41 2022

                       pc 0002               __CFG_CP$OFF 0000              lcd_dataReg@d 0074  
                      l21 0149                        l22 0188                        l31 0421  
                      l23 0193                        l32 0413                        l24 0194  
                      l33 0428                        l25 0195                        l34 0428  
                      l50 01CC                        l26 0195                        l51 01F6  
                      l52 021A                        l54 0210                        l62 044F  
                      l55 021F                        l47 01C7                        l71 03A2  
                      l56 0222                        l80 0065                        l72 038B  
                      l49 01BD                        l65 0378                        l81 0066  
                      l73 03AF                        l90 010C                        l82 0088  
                      l74 03AF                        l59 03E5                        l91 010C  
                      l83 0094                        l84 0089                        l77 0036  
                      l86 00B1                        l78 007A                        l87 00B2  
                      l79 004B                        l88 00C0                        l89 00C0  
            ___awdiv@sign 0021                        fsr 0004                       l151 0471  
                     l119 0499                       l158 04A3                       l167 04A9  
                     l460 0284                       l452 0232                       l461 0290  
                     l453 0240                       l462 0295                       l454 0285  
                     l470 02C7                       l455 0257                       l471 02C8  
                     l456 024B                       l472 02D9                       l457 025C  
                     l473 02E7                       l465 02A3                       l458 025D  
                     l474 02F3                       l466 02AD                       l459 0276  
                     l475 02F8                       l467 02E8                       l468 02C2  
                     l469 02B6                       l590 0333                       l591 0339  
                     l584 0334                       l585 030E                       l586 0302  
                     l587 0313                       l588 0314                       l589 0325  
                     _PR2 0092              __CFG_CPD$OFF 0000                       u700 020F  
                     u701 020E                       u710 0427                       u630 01B6  
                     u711 0426                       u631 01B5                       u615 019F  
                     u640 01BC                       u641 01BB                       u625 01A7  
                     u650 01D8                       u651 01D7                       u900 02C6  
                     u901 02C5                       u725 03B7                       u910 02D2  
                     u911 02D1                       u735 03BF                       u665 01DC  
                     u745 03D4                       u690 0209                       u930 02E6  
                     u691 0208                       u675 01E4                       u931 02E5  
                     u915 02CE                       u755 0441                       u940 02ED  
                     u860 029B                       u685 01FA                       u941 02EC  
                     u925 02DA                       u861 029A                       u870 02A7  
                     u871 02A6                       u880 02B3                       u881 02B2  
                     u895 02B7                       fsr0 0004              ___awmod@sign 0078  
            __CFG_LVP$OFF 0000               lcd_num@size 002C                      l1200 01ED  
                    l1210 0203                      l1202 01EE                      l1220 021F  
                    l1212 0204                      l1204 01F2                      l1300 02A3  
                    l1222 0412                      l1214 0209                      l1206 01F6  
                    l1310 02BD                      l1302 02A7                      l1230 03B4  
                    l1224 0413                      l1216 0210                      l1208 01F7  
                    l1320 02E0                      l1312 02C2                      l1304 02AD  
                    l1240 03D1                      l1232 03C8                      l1226 0421  
                    l1218 021A                      l1330 033A                      l1314 02C8  
                    l1306 02B3                      l1322 02E8                      l1242 03DD  
                    l1234 03C9                      l1180 0199                      l1340 0349  
                    l1332 0343                      l1324 02ED                      l1316 02D2  
                    l1308 02B6                      l1244 03E2                      l1236 03CD  
                    l1228 03B1                      l1430 02F9                      l1190 01C7  
                    l1182 019C                      l1342 034A                      l1334 0346  
                    l1510 022A                      l1326 02F3                      l1318 02D9  
                    l1238 03D0                      l1246 043E                      l1350 0497  
                    l1360 046B                      l1416 04A4                      l1440 0314  
                    l1432 02FF                      l1192 01CC                      l1184 01B0  
                    l1344 0354                      l1336 0347                      l1520 0240  
                    l1512 022F                      l1328 02F8                      l1352 0498  
                    l1600 0116                      l1362 046F                      l1354 0462  
                    l1418 04A9                      l1450 0339                      l1442 031E  
                    l1434 0302                      l1194 01CF                      l1186 01B6  
                    l1338 0348                      l1530 0257                      l1522 0242  
                    l1514 0232                      l1506 0223                      l1346 048F  
                    l1610 0149                      l1602 011B                      l1364 0470  
                    l1356 0466                      l1444 0325                      l1436 0309  
                    l1196 01D8                      l1188 01BD                      l1540 027D  
                    l1532 025D                      l1524 0248                      l1516 0236  
                    l1508 0226                      l1292 0296                      l1348 0493  
                    l1612 0154                      l1604 0120                      l1358 046A  
                    l1366 049A                      l1446 032C                      l1438 030E  
                    l1198 01D9                      l1534 026E                      l1526 024B  
                    l1542 0285                      l1518 023B                      l1294 0297  
                    l1550 0022                      l1614 0178                      l1606 0129  
                    l1368 04A2                      l1448 0334                      l1544 028A  
                    l1536 0274                      l1528 0252                      l1296 029B  
                    l1560 0046                      l1552 002B                      l1616 0188  
                    l1608 013A                      l1546 0290                      l1538 0276  
                    l1298 02A0                      l1570 0089                      l1562 004B  
                    l1554 0030                      l1618 0191                      l1548 0295  
                    l1580 00B9                      l1572 008F                      l1564 0060  
                    l1556 0036                      l1582 00FE                      l1566 0066  
                    l1574 0094                      l1558 0040                      l1590 0397  
                    l1576 00A8                      l1568 007A                      l1592 039D  
                    l1584 037C                      l1578 00B2                      l1594 03A2  
                    l1586 0380                      l1588 038B                      l1596 010D  
                    l1598 0111                      STR_1 0488                      u1100 031E  
                    u1101 031D                      u1120 0332                      u1200 0248  
                    u1121 0331                      u1105 031A                      u1201 0247  
                    u1115 0326                      u1220 025B                      u1300 0030  
                    u1221 025A                      u1301 002F                      u1070 02FF  
                    u1310 0060                      u1071 02FE                      u1215 024C  
                    u1311 005F                      u1240 026E                      u1320 0087  
                    u1241 026D                      u1321 0086                      u1090 0312  
                    u1330 00A8                      u1091 0311                      u1235 025E  
                    u1331 00A7                      u1260 0283                      u1180 022A  
                    u1340 00B0                      u1085 0303                      u1261 0282  
                    u1245 026A                      u1181 0229                      u1341 00AF  
                    u1325 0083                      u1270 028A                      u1190 0236  
                    u1350 00B9                      u1271 0289                      u1255 0277  
                    u1191 0235                      u1407 03CB                      u1351 00B8  
                    u1335 00A4                      u1360 010B                      u1280 0027  
                    u1417 03E0                      u1361 010A                      u1281 0025  
                    u1290 0028                      u1370 03AE                      u1427 01C1  
                    u1371 03AD                      u1380 0154                      u1437 01C9  
                    u1365 0107                      u1381 0153                      u1390 0191  
                    u1447 01F0                      u1391 0190                      u1457 0214  
                    u1467 021C                      u1477 0415                      _TMR0 0001  
                    _TMR2 0011           __end_of_T0_init 0472              __CFG_WRT$OFF 0000  
                    _main 010D                      _ilsr 03E6                      _modo 0039  
                    btemp 007E                      start 000C             __CFG_IESO$OFF 0000  
            lcd_instReg@i 0074              lcd_num@sinal 002D                     ?_main 0070  
                   ?_ilsr 0070           __end_of___awdiv 0296             __CFG_WDTE$OFF 0000  
         __end_of___awmod 02F9           ___awdiv@divisor 0072                     i1l220 03F1  
                   i1l221 03FE                     i1l222 040B                     i1l223 040B  
                   i1l154 0461                     i1l155 0461                     i1l173 043C  
                   i1l174 043C                     i1l192 0481                     i1l193 0481  
         __end_of___lwmod 033A           ___awdiv@counter 0020                     _TMR1H 000F  
                   _TMR1L 000E                     _PORTD 0008                     u45_20 045A  
                   u45_21 0459              lcd_print@col 0078              lcd_print@lin 0022  
          __CFG_FCMEN$OFF 0000              lcd_print@pos 0021              lcd_print@str 0079  
      __size_of_T0_status 0006          __end_of_T0_start 04A4           __end_of_lcd_num 010D  
          __CFG_BOREN$OFF 0000                     pclath 000A                     status 0003  
                   wtemp0 007E             lcd_lincol@col 0075             lcd_lincol@lin 0077  
          __CFG_MCLRE$OFF 0000           __initialization 000F              __end_of_main 0198  
            __end_of_ilsr 0412                    ??_main 0030                    ??_ilsr 0070  
               ??_T0_init 0072          ___awdiv@dividend 0074                    i1l1040 045A  
                  i1l1036 0450                    i1l1038 0454                    i1l1420 0429  
                  i1l1500 03FE                    i1l1422 042F                    i1l1502 0404  
                  i1l1424 0435                    i1l1504 0405                    i1l1426 0472  
                  i1l1428 047A                    u105_20 0435                    u105_21 0434  
                  i1l1490 03EA                    i1l1492 03EB                    i1l1494 03F1  
                  u106_20 047A                    i1l1496 03F7                    i1l1488 03E6  
                  u106_21 0479                    i1l1498 03F8                    u115_20 03EA  
                  u115_21 03E9                    u116_20 03F7                    u116_21 03F6  
                  u117_20 0404                    u117_21 0403                    _T0_int 0450  
                  _T1_int 0429                    _T2_int 0472          __end_of_delay_ms 0429  
          __CFG_PWRTE$OFF 0000      __size_of_lcd_dataReg 0036         __end_of_T0_status 04AA  
        __end_of_lcd_init 0379                 ??___awdiv 0076                 ??___awmod 0076  
    __size_of_lcd_instReg 008B                 ??___lwmod 0076          ___awdiv@quotient 0022  
         ___awmod@divisor 0072           ___awmod@counter 0077                 ??_lcd_num 0028  
                  saved_w 007E          __end_of_prs_init 049A   __end_of__initialization 001B  
          __pcstackCOMMON 0070                 ?_T0_start 0072            _OPTION_REGbits 0081  
      __size_of_lcd_print 0037                __pbssBANK0 0033                   ?_T0_int 0070  
                 ?_T1_int 0070                   ?_T2_int 0070                __pmaintext 010D  
              ??_T0_start 0074                __pintentry 0004                 T0_start@c 0072  
               ?_delay_ms 0072                _lcd_lincol 043D                   _T0_init 0462  
                 _T0count 007A                   _T1count 0035                   _T2count 0033  
               ?_lcd_init 0070                __stringtab 0482           __size_of_T0_int 0012  
         __size_of_T1_int 0014           __size_of_T2_int 0010         __end_of_lcd_print 03B0  
                 ___awdiv 0223                 ?_prs_init 0070                   ___awmod 0296  
                 ___lwmod 02F9                   __ptext1 048F                   __ptext2 0379  
                 __ptext3 001F                   __ptext4 043D                   __ptext5 03B0  
                 __ptext6 0296                   __ptext7 0223                   __ptext8 033A  
                 __ptext9 0198                   _lcd_num 001F                 _T1CONbits 0010  
               _T2CONbits 0012          ___awmod@dividend 0074                ??_delay_ms 0074  
                 main@seg 0031                ??_lcd_init 0075      end_of_initialization 001B  
              ??_prs_init 0072                 _T0_status 04A4                 _PORTCbits 0007  
               _PORTDbits 0008                 _TRISCbits 0087               ?_lcd_lincol 0075  
               _TRISDbits 0088             ??_lcd_dataReg 0072                lcd_num@col 0024  
              lcd_num@div 002E                lcd_num@lin 002B                lcd_num@tam 0027  
              lcd_num@num 0025            __end_of_T0_int 0462            __end_of_T1_int 043D  
          __end_of_T2_int 0482             ??_lcd_instReg 0072                ?_T0_status 0072  
       __size_of_T0_start 000A       start_initialization 000F                  ??_T0_int 0070  
                ??_T1_int 0070                  ??_T2_int 0070  __CFG_FOSC$INTRC_NOCLKOUT 0000  
     __end_of_lcd_dataReg 03E6       __size_of_lcd_lincol 0013       __end_of_lcd_instReg 0223  
             __pbssCOMMON 007A                 ___latbits 0002             __pcstackBANK0 0020  
                ?_T0_init 0070         __size_of_delay_ms 0017         __size_of_lcd_init 003F  
                ?___awdiv 0072                  ?___awmod 0072                  ?___lwmod 0072  
             ??_T0_status 0074         __size_of_prs_init 000B                 __pstrings 0482  
               _lcd_print 0379                  ?_lcd_num 0024         interrupt_function 0004  
             _lcd_dataReg 03B0                 delay_ms@t 0072                  _PIE1bits 008C  
                _PIR1bits 000C               _lcd_instReg 0198                  _T0_start 049A  
              ?_lcd_print 0078               __stringbase 0487              ??_lcd_lincol 0076  
        __size_of_T0_init 0010        __end_of_lcd_lincol 0450          __size_of___awdiv 0073  
        __size_of___awmod 0063          __size_of___lwmod 0041        __end_of__stringtab 0488  
        __size_of_lcd_num 00EE                  _delay_ms 0412                  __ptext10 0412  
                __ptext11 02F9                  __ptext12 04A4                  __ptext13 049A  
                __ptext14 0462                  __ptext15 03E6                  __ptext16 0472  
                __ptext17 0429                  __ptext18 0450         __CFG_BOR4V$BOR40V 0000  
                _lcd_init 033A             __size_of_main 008B             __size_of_ilsr 002C  
                _t_sensor 0037                  _prs_init 048F               ??_lcd_print 0020  
              _INTCONbits 000B                  intlevel1 0000          ___lwmod@dividend 0074  
               stringcode 0482           ___lwmod@divisor 0072           ___lwmod@counter 0077  
                stringdir 0482                  stringtab 0482              ?_lcd_dataReg 0070  
            ?_lcd_instReg 0070  
