

Microchip Technology PIC LITE Macro Assembler V2.00 build -1524193055 
                                                                                               Fri Aug 19 11:22:43 2022

Microchip Technology Omniscient Code Generator v2.00 (Free mode) build 20180527130849
     1  0000                     
      + 0000                     
     2                           ; Version 2.00
     3                           ; Generated 27/05/2018 GMT
     4                           
     5                           ; 
     6                           ; Copyright © 2018, Microchip Technology Inc. and its subsidiaries ("Microchip")
     7                           ; All rights reserved.
     8                           ; 
     9                           ; This software is developed by Microchip Technology Inc. and its subsidiaries ("Microch
                                 ip").
    10                           ; 
    11                           ; Redistribution and use in source and binary forms, with or without modification, are
    12                           ; permitted provided that the following conditions are met:
    13                           ; 
    14                           ;     1. Redistributions of source code must retain the above copyright notice, this lis
                                 t of
    15                           ;        conditions and the following disclaimer.
    16                           ; 
    17                           ;     2. Redistributions in binary form must reproduce the above copyright notice, this 
                                 list
    18                           ;        of conditions and the following disclaimer in the documentation and/or other
    19                           ;        materials provided with the distribution.
    20                           ; 
    21                           ;     3. Microchip's name may not be used to endorse or promote products derived from th
                                 is
    22                           ;        software without specific prior written permission.
    23                           ; 
    24                           ; THIS SOFTWARE IS PROVIDED BY MICROCHIP "AS IS" AND ANY EXPRESS OR IMPLIED WARRANTIES,

    25                           ; INCLUDING, BUT NOT LIMITED TO, THE IMPLIED WARRANTIES OF MERCHANTABILITY AND FITNESS F
                                 OR
    26                           ; PURPOSE ARE DISCLAIMED.  IN NO EVENT SHALL MICROCHIP BE LIABLE FOR ANY DIRECT, INDIREC
                                 T,
    27                           ; INCIDENTAL, SPECIAL, EXEMPLARY, OR CONSEQUENTIAL DAMAGES (INCLUDING BUT NOT LIMITED TO
                                 
    28                           ; PROCUREMENT OF SUBSTITUTE GOODS OR SERVICES; LOSS OF USE, DATA OR PROFITS; OR BUSINESS
                                 
    29                           ; INTERRUPTION) HOWSOEVER CAUSED AND ON ANY THEORY OF LIABILITY, WHETHER IN CONTRACT, ST
                                 RICT
    30                           ; LIABILITY, OR TORT (INCLUDING NEGLIGENCE OR OTHERWISE) ARISING IN ANY WAY OUT OF THE U
                                 SE OF
    31                           ; THIS SOFTWARE, EVEN IF ADVISED OF THE POSSIBILITY OF SUCH DAMAGE.
    32                           ; 
    33                           
    34                           
    35                           ; 
    36                           ; Code-generator required, PIC16F887 Definitions
    37                           ; 
    38  0004                     fsr0 equ 04h
    39  0004                     indf equ 00h
    40  0000                     indf0 equ 00h
    41  0000                     pc equ 02h
    42  0002                     pcl equ 02h
    43  0002                     pclath equ 0Ah
    44  000A                     status equ 03h
    45  0003                     
     2                           opt pagewidth 120
     3  0000                     byte0	macro	val
     4                           	(getbyte(val,0))
     5                           endm
     6  0000                     byte1	macro	val
     7                           	(getbyte(val,1))
     8                           endm
     9  0000                     byte2	macro	val
    10                           	(getbyte(val,2))
    11                           endm
    12  0000                     byte3	macro	val
    13                           	(getbyte(val,3))
    14                           endm
    15  0000                     byte4	macro	val
    16                           	(getbyte(val,4))
    17                           endm
    18  0000                     byte5	macro	val
    19                           	(getbyte(val,5))
    20                           endm
    21  0000                     byte6	macro	val
    22                           	(getbyte(val,6))
    23                           endm
    24  0000                     byte7	macro	val
    25                           	(getbyte(val,7))
    26                           endm
    27  0000                     getword	macro	val,pos
    28                           	(((val) >> (8 * pos)) and 0xffff)
    29                           endm
    30  0000                     word0	macro	val
    31                           	(getword(val,0))
    32                           endm
    33  0000                     word1	macro	val
    34                           	(getword(val,2))
    35                           endm
    36  0000                     word2	macro	val
    37                           	(getword(val,4))
    38                           endm
    39  0000                     word3	macro	val
    40                           	(getword(val,6))
    41                           endm
    42  0000                     gettword	macro	val,pos
    43                           	(((val) >> (8 * pos)) and 0xffffff)
    44                           endm
    45  0000                     tword0	macro	val
    46                           	(gettword(val,0))
    47                           endm
    48  0000                     tword1	macro	val
    49                           	(gettword(val,3))
    50                           endm
    51  0000                     tword2	macro	val
    52                           	(gettword(val,6))
    53                           endm
    54  0000                     getdword	macro	val,pos
    55                           	(((val) >> (8 * pos)) and 0xffffffff)
    56                           endm
    57  0000                     dword0	macro	val
    58                           	(getdword(val,0))
    59                           endm
    60  0000                     dword1	macro	val
    61                           	(getdword(val,4))
    62                           endm
    63  0000                     clrc	macro
    64                           	bcf	3,0
    65                           	endm
    66  0000                     clrz	macro
    67                           	bcf	3,2
    68                           	endm
    69  0000                     setc	macro
    70                           	bsf	3,0
    71                           	endm
    72  0000                     setz	macro
    73                           	bsf	3,2
    74                           	endm
    75  0000                     skipc	macro
    76                           	btfss	3,0
    77                           	endm
    78  0000                     skipz	macro
    79                           	btfss	3,2
    80                           	endm
    81  0000                     skipnc	macro
    82                           	btfsc	3,0
    83                           	endm
    84  0000                     skipnz	macro
    85                           	btfsc	3,2
    86                           	endm
    87  0000                     # 54 "C:\Program Files (x86)\Microchip\xc8\v2.00\pic\include\pic16f887.h"
    88                           INDF equ 00h ;# 
    89  0000                     # 61 "C:\Program Files (x86)\Microchip\xc8\v2.00\pic\include\pic16f887.h"
    90                           TMR0 equ 01h ;# 
    91  0001                     # 68 "C:\Program Files (x86)\Microchip\xc8\v2.00\pic\include\pic16f887.h"
    92                           PCL equ 02h ;# 
    93  0002                     # 75 "C:\Program Files (x86)\Microchip\xc8\v2.00\pic\include\pic16f887.h"
    94                           STATUS equ 03h ;# 
    95  0003                     # 161 "C:\Program Files (x86)\Microchip\xc8\v2.00\pic\include\pic16f887.h"
    96                           FSR equ 04h ;# 
    97  0004                     # 168 "C:\Program Files (x86)\Microchip\xc8\v2.00\pic\include\pic16f887.h"
    98                           PORTA equ 05h ;# 
    99  0005                     # 230 "C:\Program Files (x86)\Microchip\xc8\v2.00\pic\include\pic16f887.h"
   100                           PORTB equ 06h ;# 
   101  0006                     # 292 "C:\Program Files (x86)\Microchip\xc8\v2.00\pic\include\pic16f887.h"
   102                           PORTC equ 07h ;# 
   103  0007                     # 354 "C:\Program Files (x86)\Microchip\xc8\v2.00\pic\include\pic16f887.h"
   104                           PORTD equ 08h ;# 
   105  0008                     # 416 "C:\Program Files (x86)\Microchip\xc8\v2.00\pic\include\pic16f887.h"
   106                           PORTE equ 09h ;# 
   107  0009                     # 454 "C:\Program Files (x86)\Microchip\xc8\v2.00\pic\include\pic16f887.h"
   108                           PCLATH equ 0Ah ;# 
   109  000A                     # 461 "C:\Program Files (x86)\Microchip\xc8\v2.00\pic\include\pic16f887.h"
   110                           INTCON equ 0Bh ;# 
   111  000B                     # 539 "C:\Program Files (x86)\Microchip\xc8\v2.00\pic\include\pic16f887.h"
   112                           PIR1 equ 0Ch ;# 
   113  000C                     # 595 "C:\Program Files (x86)\Microchip\xc8\v2.00\pic\include\pic16f887.h"
   114                           PIR2 equ 0Dh ;# 
   115  000D                     # 652 "C:\Program Files (x86)\Microchip\xc8\v2.00\pic\include\pic16f887.h"
   116                           TMR1 equ 0Eh ;# 
   117  000E                     # 659 "C:\Program Files (x86)\Microchip\xc8\v2.00\pic\include\pic16f887.h"
   118                           TMR1L equ 0Eh ;# 
   119  000E                     # 666 "C:\Program Files (x86)\Microchip\xc8\v2.00\pic\include\pic16f887.h"
   120                           TMR1H equ 0Fh ;# 
   121  000F                     # 673 "C:\Program Files (x86)\Microchip\xc8\v2.00\pic\include\pic16f887.h"
   122                           T1CON equ 010h ;# 
   123  0010                     # 767 "C:\Program Files (x86)\Microchip\xc8\v2.00\pic\include\pic16f887.h"
   124                           TMR2 equ 011h ;# 
   125  0011                     # 774 "C:\Program Files (x86)\Microchip\xc8\v2.00\pic\include\pic16f887.h"
   126                           T2CON equ 012h ;# 
   127  0012                     # 845 "C:\Program Files (x86)\Microchip\xc8\v2.00\pic\include\pic16f887.h"
   128                           SSPBUF equ 013h ;# 
   129  0013                     # 852 "C:\Program Files (x86)\Microchip\xc8\v2.00\pic\include\pic16f887.h"
   130                           SSPCON equ 014h ;# 
   131  0014                     # 922 "C:\Program Files (x86)\Microchip\xc8\v2.00\pic\include\pic16f887.h"
   132                           CCPR1 equ 015h ;# 
   133  0015                     # 929 "C:\Program Files (x86)\Microchip\xc8\v2.00\pic\include\pic16f887.h"
   134                           CCPR1L equ 015h ;# 
   135  0015                     # 936 "C:\Program Files (x86)\Microchip\xc8\v2.00\pic\include\pic16f887.h"
   136                           CCPR1H equ 016h ;# 
   137  0016                     # 943 "C:\Program Files (x86)\Microchip\xc8\v2.00\pic\include\pic16f887.h"
   138                           CCP1CON equ 017h ;# 
   139  0017                     # 1040 "C:\Program Files (x86)\Microchip\xc8\v2.00\pic\include\pic16f887.h"
   140                           RCSTA equ 018h ;# 
   141  0018                     # 1135 "C:\Program Files (x86)\Microchip\xc8\v2.00\pic\include\pic16f887.h"
   142                           TXREG equ 019h ;# 
   143  0019                     # 1142 "C:\Program Files (x86)\Microchip\xc8\v2.00\pic\include\pic16f887.h"
   144                           RCREG equ 01Ah ;# 
   145  001A                     # 1149 "C:\Program Files (x86)\Microchip\xc8\v2.00\pic\include\pic16f887.h"
   146                           CCPR2 equ 01Bh ;# 
   147  001B                     # 1156 "C:\Program Files (x86)\Microchip\xc8\v2.00\pic\include\pic16f887.h"
   148                           CCPR2L equ 01Bh ;# 
   149  001B                     # 1163 "C:\Program Files (x86)\Microchip\xc8\v2.00\pic\include\pic16f887.h"
   150                           CCPR2H equ 01Ch ;# 
   151  001C                     # 1170 "C:\Program Files (x86)\Microchip\xc8\v2.00\pic\include\pic16f887.h"
   152                           CCP2CON equ 01Dh ;# 
   153  001D                     # 1240 "C:\Program Files (x86)\Microchip\xc8\v2.00\pic\include\pic16f887.h"
   154                           ADRESH equ 01Eh ;# 
   155  001E                     # 1247 "C:\Program Files (x86)\Microchip\xc8\v2.00\pic\include\pic16f887.h"
   156                           ADCON0 equ 01Fh ;# 
   157  001F                     # 1348 "C:\Program Files (x86)\Microchip\xc8\v2.00\pic\include\pic16f887.h"
   158                           OPTION_REG equ 081h ;# 
   159  0081                     # 1418 "C:\Program Files (x86)\Microchip\xc8\v2.00\pic\include\pic16f887.h"
   160                           TRISA equ 085h ;# 
   161  0085                     # 1480 "C:\Program Files (x86)\Microchip\xc8\v2.00\pic\include\pic16f887.h"
   162                           TRISB equ 086h ;# 
   163  0086                     # 1542 "C:\Program Files (x86)\Microchip\xc8\v2.00\pic\include\pic16f887.h"
   164                           TRISC equ 087h ;# 
   165  0087                     # 1604 "C:\Program Files (x86)\Microchip\xc8\v2.00\pic\include\pic16f887.h"
   166                           TRISD equ 088h ;# 
   167  0088                     # 1666 "C:\Program Files (x86)\Microchip\xc8\v2.00\pic\include\pic16f887.h"
   168                           TRISE equ 089h ;# 
   169  0089                     # 1704 "C:\Program Files (x86)\Microchip\xc8\v2.00\pic\include\pic16f887.h"
   170                           PIE1 equ 08Ch ;# 
   171  008C                     # 1760 "C:\Program Files (x86)\Microchip\xc8\v2.00\pic\include\pic16f887.h"
   172                           PIE2 equ 08Dh ;# 
   173  008D                     # 1817 "C:\Program Files (x86)\Microchip\xc8\v2.00\pic\include\pic16f887.h"
   174                           PCON equ 08Eh ;# 
   175  008E                     # 1864 "C:\Program Files (x86)\Microchip\xc8\v2.00\pic\include\pic16f887.h"
   176                           OSCCON equ 08Fh ;# 
   177  008F                     # 1929 "C:\Program Files (x86)\Microchip\xc8\v2.00\pic\include\pic16f887.h"
   178                           OSCTUNE equ 090h ;# 
   179  0090                     # 1981 "C:\Program Files (x86)\Microchip\xc8\v2.00\pic\include\pic16f887.h"
   180                           SSPCON2 equ 091h ;# 
   181  0091                     # 2043 "C:\Program Files (x86)\Microchip\xc8\v2.00\pic\include\pic16f887.h"
   182                           PR2 equ 092h ;# 
   183  0092                     # 2050 "C:\Program Files (x86)\Microchip\xc8\v2.00\pic\include\pic16f887.h"
   184                           SSPADD equ 093h ;# 
   185  0093                     # 2057 "C:\Program Files (x86)\Microchip\xc8\v2.00\pic\include\pic16f887.h"
   186                           SSPMSK equ 093h ;# 
   187  0093                     # 2062 "C:\Program Files (x86)\Microchip\xc8\v2.00\pic\include\pic16f887.h"
   188                           MSK equ 093h ;# 
   189  0093                     # 2179 "C:\Program Files (x86)\Microchip\xc8\v2.00\pic\include\pic16f887.h"
   190                           SSPSTAT equ 094h ;# 
   191  0094                     # 2348 "C:\Program Files (x86)\Microchip\xc8\v2.00\pic\include\pic16f887.h"
   192                           WPUB equ 095h ;# 
   193  0095                     # 2418 "C:\Program Files (x86)\Microchip\xc8\v2.00\pic\include\pic16f887.h"
   194                           IOCB equ 096h ;# 
   195  0096                     # 2488 "C:\Program Files (x86)\Microchip\xc8\v2.00\pic\include\pic16f887.h"
   196                           VRCON equ 097h ;# 
   197  0097                     # 2558 "C:\Program Files (x86)\Microchip\xc8\v2.00\pic\include\pic16f887.h"
   198                           TXSTA equ 098h ;# 
   199  0098                     # 2644 "C:\Program Files (x86)\Microchip\xc8\v2.00\pic\include\pic16f887.h"
   200                           SPBRG equ 099h ;# 
   201  0099                     # 2706 "C:\Program Files (x86)\Microchip\xc8\v2.00\pic\include\pic16f887.h"
   202                           SPBRGH equ 09Ah ;# 
   203  009A                     # 2776 "C:\Program Files (x86)\Microchip\xc8\v2.00\pic\include\pic16f887.h"
   204                           PWM1CON equ 09Bh ;# 
   205  009B                     # 2846 "C:\Program Files (x86)\Microchip\xc8\v2.00\pic\include\pic16f887.h"
   206                           ECCPAS equ 09Ch ;# 
   207  009C                     # 2928 "C:\Program Files (x86)\Microchip\xc8\v2.00\pic\include\pic16f887.h"
   208                           PSTRCON equ 09Dh ;# 
   209  009D                     # 2972 "C:\Program Files (x86)\Microchip\xc8\v2.00\pic\include\pic16f887.h"
   210                           ADRESL equ 09Eh ;# 
   211  009E                     # 2979 "C:\Program Files (x86)\Microchip\xc8\v2.00\pic\include\pic16f887.h"
   212                           ADCON1 equ 09Fh ;# 
   213  009F                     # 3013 "C:\Program Files (x86)\Microchip\xc8\v2.00\pic\include\pic16f887.h"
   214                           WDTCON equ 0105h ;# 
   215  0105                     # 3066 "C:\Program Files (x86)\Microchip\xc8\v2.00\pic\include\pic16f887.h"
   216                           CM1CON0 equ 0107h ;# 
   217  0107                     # 3131 "C:\Program Files (x86)\Microchip\xc8\v2.00\pic\include\pic16f887.h"
   218                           CM2CON0 equ 0108h ;# 
   219  0108                     # 3196 "C:\Program Files (x86)\Microchip\xc8\v2.00\pic\include\pic16f887.h"
   220                           CM2CON1 equ 0109h ;# 
   221  0109                     # 3247 "C:\Program Files (x86)\Microchip\xc8\v2.00\pic\include\pic16f887.h"
   222                           EEDATA equ 010Ch ;# 
   223  010C                     # 3252 "C:\Program Files (x86)\Microchip\xc8\v2.00\pic\include\pic16f887.h"
   224                           EEDAT equ 010Ch ;# 
   225  010C                     # 3259 "C:\Program Files (x86)\Microchip\xc8\v2.00\pic\include\pic16f887.h"
   226                           EEADR equ 010Dh ;# 
   227  010D                     # 3266 "C:\Program Files (x86)\Microchip\xc8\v2.00\pic\include\pic16f887.h"
   228                           EEDATH equ 010Eh ;# 
   229  010E                     # 3273 "C:\Program Files (x86)\Microchip\xc8\v2.00\pic\include\pic16f887.h"
   230                           EEADRH equ 010Fh ;# 
   231  010F                     # 3280 "C:\Program Files (x86)\Microchip\xc8\v2.00\pic\include\pic16f887.h"
   232                           SRCON equ 0185h ;# 
   233  0185                     # 3337 "C:\Program Files (x86)\Microchip\xc8\v2.00\pic\include\pic16f887.h"
   234                           BAUDCTL equ 0187h ;# 
   235  0187                     # 3389 "C:\Program Files (x86)\Microchip\xc8\v2.00\pic\include\pic16f887.h"
   236                           ANSEL equ 0188h ;# 
   237  0188                     # 3451 "C:\Program Files (x86)\Microchip\xc8\v2.00\pic\include\pic16f887.h"
   238                           ANSELH equ 0189h ;# 
   239  0189                     # 3501 "C:\Program Files (x86)\Microchip\xc8\v2.00\pic\include\pic16f887.h"
   240                           EECON1 equ 018Ch ;# 
   241  018C                     # 3546 "C:\Program Files (x86)\Microchip\xc8\v2.00\pic\include\pic16f887.h"
   242                           EECON2 equ 018Dh ;# 
   243  018D                     # 54 "C:\Program Files (x86)\Microchip\xc8\v2.00\pic\include\pic16f887.h"
   244                           INDF equ 00h ;# 
   245  0000                     # 61 "C:\Program Files (x86)\Microchip\xc8\v2.00\pic\include\pic16f887.h"
   246                           TMR0 equ 01h ;# 
   247  0001                     # 68 "C:\Program Files (x86)\Microchip\xc8\v2.00\pic\include\pic16f887.h"
   248                           PCL equ 02h ;# 
   249  0002                     # 75 "C:\Program Files (x86)\Microchip\xc8\v2.00\pic\include\pic16f887.h"
   250                           STATUS equ 03h ;# 
   251  0003                     # 161 "C:\Program Files (x86)\Microchip\xc8\v2.00\pic\include\pic16f887.h"
   252                           FSR equ 04h ;# 
   253  0004                     # 168 "C:\Program Files (x86)\Microchip\xc8\v2.00\pic\include\pic16f887.h"
   254                           PORTA equ 05h ;# 
   255  0005                     # 230 "C:\Program Files (x86)\Microchip\xc8\v2.00\pic\include\pic16f887.h"
   256                           PORTB equ 06h ;# 
   257  0006                     # 292 "C:\Program Files (x86)\Microchip\xc8\v2.00\pic\include\pic16f887.h"
   258                           PORTC equ 07h ;# 
   259  0007                     # 354 "C:\Program Files (x86)\Microchip\xc8\v2.00\pic\include\pic16f887.h"
   260                           PORTD equ 08h ;# 
   261  0008                     # 416 "C:\Program Files (x86)\Microchip\xc8\v2.00\pic\include\pic16f887.h"
   262                           PORTE equ 09h ;# 
   263  0009                     # 454 "C:\Program Files (x86)\Microchip\xc8\v2.00\pic\include\pic16f887.h"
   264                           PCLATH equ 0Ah ;# 
   265  000A                     # 461 "C:\Program Files (x86)\Microchip\xc8\v2.00\pic\include\pic16f887.h"
   266                           INTCON equ 0Bh ;# 
   267  000B                     # 539 "C:\Program Files (x86)\Microchip\xc8\v2.00\pic\include\pic16f887.h"
   268                           PIR1 equ 0Ch ;# 
   269  000C                     # 595 "C:\Program Files (x86)\Microchip\xc8\v2.00\pic\include\pic16f887.h"
   270                           PIR2 equ 0Dh ;# 
   271  000D                     # 652 "C:\Program Files (x86)\Microchip\xc8\v2.00\pic\include\pic16f887.h"
   272                           TMR1 equ 0Eh ;# 
   273  000E                     # 659 "C:\Program Files (x86)\Microchip\xc8\v2.00\pic\include\pic16f887.h"
   274                           TMR1L equ 0Eh ;# 
   275  000E                     # 666 "C:\Program Files (x86)\Microchip\xc8\v2.00\pic\include\pic16f887.h"
   276                           TMR1H equ 0Fh ;# 
   277  000F                     # 673 "C:\Program Files (x86)\Microchip\xc8\v2.00\pic\include\pic16f887.h"
   278                           T1CON equ 010h ;# 
   279  0010                     # 767 "C:\Program Files (x86)\Microchip\xc8\v2.00\pic\include\pic16f887.h"
   280                           TMR2 equ 011h ;# 
   281  0011                     # 774 "C:\Program Files (x86)\Microchip\xc8\v2.00\pic\include\pic16f887.h"
   282                           T2CON equ 012h ;# 
   283  0012                     # 845 "C:\Program Files (x86)\Microchip\xc8\v2.00\pic\include\pic16f887.h"
   284                           SSPBUF equ 013h ;# 
   285  0013                     # 852 "C:\Program Files (x86)\Microchip\xc8\v2.00\pic\include\pic16f887.h"
   286                           SSPCON equ 014h ;# 
   287  0014                     # 922 "C:\Program Files (x86)\Microchip\xc8\v2.00\pic\include\pic16f887.h"
   288                           CCPR1 equ 015h ;# 
   289  0015                     # 929 "C:\Program Files (x86)\Microchip\xc8\v2.00\pic\include\pic16f887.h"
   290                           CCPR1L equ 015h ;# 
   291  0015                     # 936 "C:\Program Files (x86)\Microchip\xc8\v2.00\pic\include\pic16f887.h"
   292                           CCPR1H equ 016h ;# 
   293  0016                     # 943 "C:\Program Files (x86)\Microchip\xc8\v2.00\pic\include\pic16f887.h"
   294                           CCP1CON equ 017h ;# 
   295  0017                     # 1040 "C:\Program Files (x86)\Microchip\xc8\v2.00\pic\include\pic16f887.h"
   296                           RCSTA equ 018h ;# 
   297  0018                     # 1135 "C:\Program Files (x86)\Microchip\xc8\v2.00\pic\include\pic16f887.h"
   298                           TXREG equ 019h ;# 
   299  0019                     # 1142 "C:\Program Files (x86)\Microchip\xc8\v2.00\pic\include\pic16f887.h"
   300                           RCREG equ 01Ah ;# 
   301  001A                     # 1149 "C:\Program Files (x86)\Microchip\xc8\v2.00\pic\include\pic16f887.h"
   302                           CCPR2 equ 01Bh ;# 
   303  001B                     # 1156 "C:\Program Files (x86)\Microchip\xc8\v2.00\pic\include\pic16f887.h"
   304                           CCPR2L equ 01Bh ;# 
   305  001B                     # 1163 "C:\Program Files (x86)\Microchip\xc8\v2.00\pic\include\pic16f887.h"
   306                           CCPR2H equ 01Ch ;# 
   307  001C                     # 1170 "C:\Program Files (x86)\Microchip\xc8\v2.00\pic\include\pic16f887.h"
   308                           CCP2CON equ 01Dh ;# 
   309  001D                     # 1240 "C:\Program Files (x86)\Microchip\xc8\v2.00\pic\include\pic16f887.h"
   310                           ADRESH equ 01Eh ;# 
   311  001E                     # 1247 "C:\Program Files (x86)\Microchip\xc8\v2.00\pic\include\pic16f887.h"
   312                           ADCON0 equ 01Fh ;# 
   313  001F                     # 1348 "C:\Program Files (x86)\Microchip\xc8\v2.00\pic\include\pic16f887.h"
   314                           OPTION_REG equ 081h ;# 
   315  0081                     # 1418 "C:\Program Files (x86)\Microchip\xc8\v2.00\pic\include\pic16f887.h"
   316                           TRISA equ 085h ;# 
   317  0085                     # 1480 "C:\Program Files (x86)\Microchip\xc8\v2.00\pic\include\pic16f887.h"
   318                           TRISB equ 086h ;# 
   319  0086                     # 1542 "C:\Program Files (x86)\Microchip\xc8\v2.00\pic\include\pic16f887.h"
   320                           TRISC equ 087h ;# 
   321  0087                     # 1604 "C:\Program Files (x86)\Microchip\xc8\v2.00\pic\include\pic16f887.h"
   322                           TRISD equ 088h ;# 
   323  0088                     # 1666 "C:\Program Files (x86)\Microchip\xc8\v2.00\pic\include\pic16f887.h"
   324                           TRISE equ 089h ;# 
   325  0089                     # 1704 "C:\Program Files (x86)\Microchip\xc8\v2.00\pic\include\pic16f887.h"
   326                           PIE1 equ 08Ch ;# 
   327  008C                     # 1760 "C:\Program Files (x86)\Microchip\xc8\v2.00\pic\include\pic16f887.h"
   328                           PIE2 equ 08Dh ;# 
   329  008D                     # 1817 "C:\Program Files (x86)\Microchip\xc8\v2.00\pic\include\pic16f887.h"
   330                           PCON equ 08Eh ;# 
   331  008E                     # 1864 "C:\Program Files (x86)\Microchip\xc8\v2.00\pic\include\pic16f887.h"
   332                           OSCCON equ 08Fh ;# 
   333  008F                     # 1929 "C:\Program Files (x86)\Microchip\xc8\v2.00\pic\include\pic16f887.h"
   334                           OSCTUNE equ 090h ;# 
   335  0090                     # 1981 "C:\Program Files (x86)\Microchip\xc8\v2.00\pic\include\pic16f887.h"
   336                           SSPCON2 equ 091h ;# 
   337  0091                     # 2043 "C:\Program Files (x86)\Microchip\xc8\v2.00\pic\include\pic16f887.h"
   338                           PR2 equ 092h ;# 
   339  0092                     # 2050 "C:\Program Files (x86)\Microchip\xc8\v2.00\pic\include\pic16f887.h"
   340                           SSPADD equ 093h ;# 
   341  0093                     # 2057 "C:\Program Files (x86)\Microchip\xc8\v2.00\pic\include\pic16f887.h"
   342                           SSPMSK equ 093h ;# 
   343  0093                     # 2062 "C:\Program Files (x86)\Microchip\xc8\v2.00\pic\include\pic16f887.h"
   344                           MSK equ 093h ;# 
   345  0093                     # 2179 "C:\Program Files (x86)\Microchip\xc8\v2.00\pic\include\pic16f887.h"
   346                           SSPSTAT equ 094h ;# 
   347  0094                     # 2348 "C:\Program Files (x86)\Microchip\xc8\v2.00\pic\include\pic16f887.h"
   348                           WPUB equ 095h ;# 
   349  0095                     # 2418 "C:\Program Files (x86)\Microchip\xc8\v2.00\pic\include\pic16f887.h"
   350                           IOCB equ 096h ;# 
   351  0096                     # 2488 "C:\Program Files (x86)\Microchip\xc8\v2.00\pic\include\pic16f887.h"
   352                           VRCON equ 097h ;# 
   353  0097                     # 2558 "C:\Program Files (x86)\Microchip\xc8\v2.00\pic\include\pic16f887.h"
   354                           TXSTA equ 098h ;# 
   355  0098                     # 2644 "C:\Program Files (x86)\Microchip\xc8\v2.00\pic\include\pic16f887.h"
   356                           SPBRG equ 099h ;# 
   357  0099                     # 2706 "C:\Program Files (x86)\Microchip\xc8\v2.00\pic\include\pic16f887.h"
   358                           SPBRGH equ 09Ah ;# 
   359  009A                     # 2776 "C:\Program Files (x86)\Microchip\xc8\v2.00\pic\include\pic16f887.h"
   360                           PWM1CON equ 09Bh ;# 
   361  009B                     # 2846 "C:\Program Files (x86)\Microchip\xc8\v2.00\pic\include\pic16f887.h"
   362                           ECCPAS equ 09Ch ;# 
   363  009C                     # 2928 "C:\Program Files (x86)\Microchip\xc8\v2.00\pic\include\pic16f887.h"
   364                           PSTRCON equ 09Dh ;# 
   365  009D                     # 2972 "C:\Program Files (x86)\Microchip\xc8\v2.00\pic\include\pic16f887.h"
   366                           ADRESL equ 09Eh ;# 
   367  009E                     # 2979 "C:\Program Files (x86)\Microchip\xc8\v2.00\pic\include\pic16f887.h"
   368                           ADCON1 equ 09Fh ;# 
   369  009F                     # 3013 "C:\Program Files (x86)\Microchip\xc8\v2.00\pic\include\pic16f887.h"
   370                           WDTCON equ 0105h ;# 
   371  0105                     # 3066 "C:\Program Files (x86)\Microchip\xc8\v2.00\pic\include\pic16f887.h"
   372                           CM1CON0 equ 0107h ;# 
   373  0107                     # 3131 "C:\Program Files (x86)\Microchip\xc8\v2.00\pic\include\pic16f887.h"
   374                           CM2CON0 equ 0108h ;# 
   375  0108                     # 3196 "C:\Program Files (x86)\Microchip\xc8\v2.00\pic\include\pic16f887.h"
   376                           CM2CON1 equ 0109h ;# 
   377  0109                     # 3247 "C:\Program Files (x86)\Microchip\xc8\v2.00\pic\include\pic16f887.h"
   378                           EEDATA equ 010Ch ;# 
   379  010C                     # 3252 "C:\Program Files (x86)\Microchip\xc8\v2.00\pic\include\pic16f887.h"
   380                           EEDAT equ 010Ch ;# 
   381  010C                     # 3259 "C:\Program Files (x86)\Microchip\xc8\v2.00\pic\include\pic16f887.h"
   382                           EEADR equ 010Dh ;# 
   383  010D                     # 3266 "C:\Program Files (x86)\Microchip\xc8\v2.00\pic\include\pic16f887.h"
   384                           EEDATH equ 010Eh ;# 
   385  010E                     # 3273 "C:\Program Files (x86)\Microchip\xc8\v2.00\pic\include\pic16f887.h"
   386                           EEADRH equ 010Fh ;# 
   387  010F                     # 3280 "C:\Program Files (x86)\Microchip\xc8\v2.00\pic\include\pic16f887.h"
   388                           SRCON equ 0185h ;# 
   389  0185                     # 3337 "C:\Program Files (x86)\Microchip\xc8\v2.00\pic\include\pic16f887.h"
   390                           BAUDCTL equ 0187h ;# 
   391  0187                     # 3389 "C:\Program Files (x86)\Microchip\xc8\v2.00\pic\include\pic16f887.h"
   392                           ANSEL equ 0188h ;# 
   393  0188                     # 3451 "C:\Program Files (x86)\Microchip\xc8\v2.00\pic\include\pic16f887.h"
   394                           ANSELH equ 0189h ;# 
   395  0189                     # 3501 "C:\Program Files (x86)\Microchip\xc8\v2.00\pic\include\pic16f887.h"
   396                           EECON1 equ 018Ch ;# 
   397  018C                     # 3546 "C:\Program Files (x86)\Microchip\xc8\v2.00\pic\include\pic16f887.h"
   398                           EECON2 equ 018Dh ;# 
   399  018D                     # 54 "C:\Program Files (x86)\Microchip\xc8\v2.00\pic\include\pic16f887.h"
   400                           INDF equ 00h ;# 
   401  0000                     # 61 "C:\Program Files (x86)\Microchip\xc8\v2.00\pic\include\pic16f887.h"
   402                           TMR0 equ 01h ;# 
   403  0001                     # 68 "C:\Program Files (x86)\Microchip\xc8\v2.00\pic\include\pic16f887.h"
   404                           PCL equ 02h ;# 
   405  0002                     # 75 "C:\Program Files (x86)\Microchip\xc8\v2.00\pic\include\pic16f887.h"
   406                           STATUS equ 03h ;# 
   407  0003                     # 161 "C:\Program Files (x86)\Microchip\xc8\v2.00\pic\include\pic16f887.h"
   408                           FSR equ 04h ;# 
   409  0004                     # 168 "C:\Program Files (x86)\Microchip\xc8\v2.00\pic\include\pic16f887.h"
   410                           PORTA equ 05h ;# 
   411  0005                     # 230 "C:\Program Files (x86)\Microchip\xc8\v2.00\pic\include\pic16f887.h"
   412                           PORTB equ 06h ;# 
   413  0006                     # 292 "C:\Program Files (x86)\Microchip\xc8\v2.00\pic\include\pic16f887.h"
   414                           PORTC equ 07h ;# 
   415  0007                     # 354 "C:\Program Files (x86)\Microchip\xc8\v2.00\pic\include\pic16f887.h"
   416                           PORTD equ 08h ;# 
   417  0008                     # 416 "C:\Program Files (x86)\Microchip\xc8\v2.00\pic\include\pic16f887.h"
   418                           PORTE equ 09h ;# 
   419  0009                     # 454 "C:\Program Files (x86)\Microchip\xc8\v2.00\pic\include\pic16f887.h"
   420                           PCLATH equ 0Ah ;# 
   421  000A                     # 461 "C:\Program Files (x86)\Microchip\xc8\v2.00\pic\include\pic16f887.h"
   422                           INTCON equ 0Bh ;# 
   423  000B                     # 539 "C:\Program Files (x86)\Microchip\xc8\v2.00\pic\include\pic16f887.h"
   424                           PIR1 equ 0Ch ;# 
   425  000C                     # 595 "C:\Program Files (x86)\Microchip\xc8\v2.00\pic\include\pic16f887.h"
   426                           PIR2 equ 0Dh ;# 
   427  000D                     # 652 "C:\Program Files (x86)\Microchip\xc8\v2.00\pic\include\pic16f887.h"
   428                           TMR1 equ 0Eh ;# 
   429  000E                     # 659 "C:\Program Files (x86)\Microchip\xc8\v2.00\pic\include\pic16f887.h"
   430                           TMR1L equ 0Eh ;# 
   431  000E                     # 666 "C:\Program Files (x86)\Microchip\xc8\v2.00\pic\include\pic16f887.h"
   432                           TMR1H equ 0Fh ;# 
   433  000F                     # 673 "C:\Program Files (x86)\Microchip\xc8\v2.00\pic\include\pic16f887.h"
   434                           T1CON equ 010h ;# 
   435  0010                     # 767 "C:\Program Files (x86)\Microchip\xc8\v2.00\pic\include\pic16f887.h"
   436                           TMR2 equ 011h ;# 
   437  0011                     # 774 "C:\Program Files (x86)\Microchip\xc8\v2.00\pic\include\pic16f887.h"
   438                           T2CON equ 012h ;# 
   439  0012                     # 845 "C:\Program Files (x86)\Microchip\xc8\v2.00\pic\include\pic16f887.h"
   440                           SSPBUF equ 013h ;# 
   441  0013                     # 852 "C:\Program Files (x86)\Microchip\xc8\v2.00\pic\include\pic16f887.h"
   442                           SSPCON equ 014h ;# 
   443  0014                     # 922 "C:\Program Files (x86)\Microchip\xc8\v2.00\pic\include\pic16f887.h"
   444                           CCPR1 equ 015h ;# 
   445  0015                     # 929 "C:\Program Files (x86)\Microchip\xc8\v2.00\pic\include\pic16f887.h"
   446                           CCPR1L equ 015h ;# 
   447  0015                     # 936 "C:\Program Files (x86)\Microchip\xc8\v2.00\pic\include\pic16f887.h"
   448                           CCPR1H equ 016h ;# 
   449  0016                     # 943 "C:\Program Files (x86)\Microchip\xc8\v2.00\pic\include\pic16f887.h"
   450                           CCP1CON equ 017h ;# 
   451  0017                     # 1040 "C:\Program Files (x86)\Microchip\xc8\v2.00\pic\include\pic16f887.h"
   452                           RCSTA equ 018h ;# 
   453  0018                     # 1135 "C:\Program Files (x86)\Microchip\xc8\v2.00\pic\include\pic16f887.h"
   454                           TXREG equ 019h ;# 
   455  0019                     # 1142 "C:\Program Files (x86)\Microchip\xc8\v2.00\pic\include\pic16f887.h"
   456                           RCREG equ 01Ah ;# 
   457  001A                     # 1149 "C:\Program Files (x86)\Microchip\xc8\v2.00\pic\include\pic16f887.h"
   458                           CCPR2 equ 01Bh ;# 
   459  001B                     # 1156 "C:\Program Files (x86)\Microchip\xc8\v2.00\pic\include\pic16f887.h"
   460                           CCPR2L equ 01Bh ;# 
   461  001B                     # 1163 "C:\Program Files (x86)\Microchip\xc8\v2.00\pic\include\pic16f887.h"
   462                           CCPR2H equ 01Ch ;# 
   463  001C                     # 1170 "C:\Program Files (x86)\Microchip\xc8\v2.00\pic\include\pic16f887.h"
   464                           CCP2CON equ 01Dh ;# 
   465  001D                     # 1240 "C:\Program Files (x86)\Microchip\xc8\v2.00\pic\include\pic16f887.h"
   466                           ADRESH equ 01Eh ;# 
   467  001E                     # 1247 "C:\Program Files (x86)\Microchip\xc8\v2.00\pic\include\pic16f887.h"
   468                           ADCON0 equ 01Fh ;# 
   469  001F                     # 1348 "C:\Program Files (x86)\Microchip\xc8\v2.00\pic\include\pic16f887.h"
   470                           OPTION_REG equ 081h ;# 
   471  0081                     # 1418 "C:\Program Files (x86)\Microchip\xc8\v2.00\pic\include\pic16f887.h"
   472                           TRISA equ 085h ;# 
   473  0085                     # 1480 "C:\Program Files (x86)\Microchip\xc8\v2.00\pic\include\pic16f887.h"
   474                           TRISB equ 086h ;# 
   475  0086                     # 1542 "C:\Program Files (x86)\Microchip\xc8\v2.00\pic\include\pic16f887.h"
   476                           TRISC equ 087h ;# 
   477  0087                     # 1604 "C:\Program Files (x86)\Microchip\xc8\v2.00\pic\include\pic16f887.h"
   478                           TRISD equ 088h ;# 
   479  0088                     # 1666 "C:\Program Files (x86)\Microchip\xc8\v2.00\pic\include\pic16f887.h"
   480                           TRISE equ 089h ;# 
   481  0089                     # 1704 "C:\Program Files (x86)\Microchip\xc8\v2.00\pic\include\pic16f887.h"
   482                           PIE1 equ 08Ch ;# 
   483  008C                     # 1760 "C:\Program Files (x86)\Microchip\xc8\v2.00\pic\include\pic16f887.h"
   484                           PIE2 equ 08Dh ;# 
   485  008D                     # 1817 "C:\Program Files (x86)\Microchip\xc8\v2.00\pic\include\pic16f887.h"
   486                           PCON equ 08Eh ;# 
   487  008E                     # 1864 "C:\Program Files (x86)\Microchip\xc8\v2.00\pic\include\pic16f887.h"
   488                           OSCCON equ 08Fh ;# 
   489  008F                     # 1929 "C:\Program Files (x86)\Microchip\xc8\v2.00\pic\include\pic16f887.h"
   490                           OSCTUNE equ 090h ;# 
   491  0090                     # 1981 "C:\Program Files (x86)\Microchip\xc8\v2.00\pic\include\pic16f887.h"
   492                           SSPCON2 equ 091h ;# 
   493  0091                     # 2043 "C:\Program Files (x86)\Microchip\xc8\v2.00\pic\include\pic16f887.h"
   494                           PR2 equ 092h ;# 
   495  0092                     # 2050 "C:\Program Files (x86)\Microchip\xc8\v2.00\pic\include\pic16f887.h"
   496                           SSPADD equ 093h ;# 
   497  0093                     # 2057 "C:\Program Files (x86)\Microchip\xc8\v2.00\pic\include\pic16f887.h"
   498                           SSPMSK equ 093h ;# 
   499  0093                     # 2062 "C:\Program Files (x86)\Microchip\xc8\v2.00\pic\include\pic16f887.h"
   500                           MSK equ 093h ;# 
   501  0093                     # 2179 "C:\Program Files (x86)\Microchip\xc8\v2.00\pic\include\pic16f887.h"
   502                           SSPSTAT equ 094h ;# 
   503  0094                     # 2348 "C:\Program Files (x86)\Microchip\xc8\v2.00\pic\include\pic16f887.h"
   504                           WPUB equ 095h ;# 
   505  0095                     # 2418 "C:\Program Files (x86)\Microchip\xc8\v2.00\pic\include\pic16f887.h"
   506                           IOCB equ 096h ;# 
   507  0096                     # 2488 "C:\Program Files (x86)\Microchip\xc8\v2.00\pic\include\pic16f887.h"
   508                           VRCON equ 097h ;# 
   509  0097                     # 2558 "C:\Program Files (x86)\Microchip\xc8\v2.00\pic\include\pic16f887.h"
   510                           TXSTA equ 098h ;# 
   511  0098                     # 2644 "C:\Program Files (x86)\Microchip\xc8\v2.00\pic\include\pic16f887.h"
   512                           SPBRG equ 099h ;# 
   513  0099                     # 2706 "C:\Program Files (x86)\Microchip\xc8\v2.00\pic\include\pic16f887.h"
   514                           SPBRGH equ 09Ah ;# 
   515  009A                     # 2776 "C:\Program Files (x86)\Microchip\xc8\v2.00\pic\include\pic16f887.h"
   516                           PWM1CON equ 09Bh ;# 
   517  009B                     # 2846 "C:\Program Files (x86)\Microchip\xc8\v2.00\pic\include\pic16f887.h"
   518                           ECCPAS equ 09Ch ;# 
   519  009C                     # 2928 "C:\Program Files (x86)\Microchip\xc8\v2.00\pic\include\pic16f887.h"
   520                           PSTRCON equ 09Dh ;# 
   521  009D                     # 2972 "C:\Program Files (x86)\Microchip\xc8\v2.00\pic\include\pic16f887.h"
   522                           ADRESL equ 09Eh ;# 
   523  009E                     # 2979 "C:\Program Files (x86)\Microchip\xc8\v2.00\pic\include\pic16f887.h"
   524                           ADCON1 equ 09Fh ;# 
   525  009F                     # 3013 "C:\Program Files (x86)\Microchip\xc8\v2.00\pic\include\pic16f887.h"
   526                           WDTCON equ 0105h ;# 
   527  0105                     # 3066 "C:\Program Files (x86)\Microchip\xc8\v2.00\pic\include\pic16f887.h"
   528                           CM1CON0 equ 0107h ;# 
   529  0107                     # 3131 "C:\Program Files (x86)\Microchip\xc8\v2.00\pic\include\pic16f887.h"
   530                           CM2CON0 equ 0108h ;# 
   531  0108                     # 3196 "C:\Program Files (x86)\Microchip\xc8\v2.00\pic\include\pic16f887.h"
   532                           CM2CON1 equ 0109h ;# 
   533  0109                     # 3247 "C:\Program Files (x86)\Microchip\xc8\v2.00\pic\include\pic16f887.h"
   534                           EEDATA equ 010Ch ;# 
   535  010C                     # 3252 "C:\Program Files (x86)\Microchip\xc8\v2.00\pic\include\pic16f887.h"
   536                           EEDAT equ 010Ch ;# 
   537  010C                     # 3259 "C:\Program Files (x86)\Microchip\xc8\v2.00\pic\include\pic16f887.h"
   538                           EEADR equ 010Dh ;# 
   539  010D                     # 3266 "C:\Program Files (x86)\Microchip\xc8\v2.00\pic\include\pic16f887.h"
   540                           EEDATH equ 010Eh ;# 
   541  010E                     # 3273 "C:\Program Files (x86)\Microchip\xc8\v2.00\pic\include\pic16f887.h"
   542                           EEADRH equ 010Fh ;# 
   543  010F                     # 3280 "C:\Program Files (x86)\Microchip\xc8\v2.00\pic\include\pic16f887.h"
   544                           SRCON equ 0185h ;# 
   545  0185                     # 3337 "C:\Program Files (x86)\Microchip\xc8\v2.00\pic\include\pic16f887.h"
   546                           BAUDCTL equ 0187h ;# 
   547  0187                     # 3389 "C:\Program Files (x86)\Microchip\xc8\v2.00\pic\include\pic16f887.h"
   548                           ANSEL equ 0188h ;# 
   549  0188                     # 3451 "C:\Program Files (x86)\Microchip\xc8\v2.00\pic\include\pic16f887.h"
   550                           ANSELH equ 0189h ;# 
   551  0189                     # 3501 "C:\Program Files (x86)\Microchip\xc8\v2.00\pic\include\pic16f887.h"
   552                           EECON1 equ 018Ch ;# 
   553  018C                     # 3546 "C:\Program Files (x86)\Microchip\xc8\v2.00\pic\include\pic16f887.h"
   554                           EECON2 equ 018Dh ;# 
   555  018D                     # 54 "C:\Program Files (x86)\Microchip\xc8\v2.00\pic\include\pic16f887.h"
   556                           INDF equ 00h ;# 
   557  0000                     # 61 "C:\Program Files (x86)\Microchip\xc8\v2.00\pic\include\pic16f887.h"
   558                           TMR0 equ 01h ;# 
   559  0001                     # 68 "C:\Program Files (x86)\Microchip\xc8\v2.00\pic\include\pic16f887.h"
   560                           PCL equ 02h ;# 
   561  0002                     # 75 "C:\Program Files (x86)\Microchip\xc8\v2.00\pic\include\pic16f887.h"
   562                           STATUS equ 03h ;# 
   563  0003                     # 161 "C:\Program Files (x86)\Microchip\xc8\v2.00\pic\include\pic16f887.h"
   564                           FSR equ 04h ;# 
   565  0004                     # 168 "C:\Program Files (x86)\Microchip\xc8\v2.00\pic\include\pic16f887.h"
   566                           PORTA equ 05h ;# 
   567  0005                     # 230 "C:\Program Files (x86)\Microchip\xc8\v2.00\pic\include\pic16f887.h"
   568                           PORTB equ 06h ;# 
   569  0006                     # 292 "C:\Program Files (x86)\Microchip\xc8\v2.00\pic\include\pic16f887.h"
   570                           PORTC equ 07h ;# 
   571  0007                     # 354 "C:\Program Files (x86)\Microchip\xc8\v2.00\pic\include\pic16f887.h"
   572                           PORTD equ 08h ;# 
   573  0008                     # 416 "C:\Program Files (x86)\Microchip\xc8\v2.00\pic\include\pic16f887.h"
   574                           PORTE equ 09h ;# 
   575  0009                     # 454 "C:\Program Files (x86)\Microchip\xc8\v2.00\pic\include\pic16f887.h"
   576                           PCLATH equ 0Ah ;# 
   577  000A                     # 461 "C:\Program Files (x86)\Microchip\xc8\v2.00\pic\include\pic16f887.h"
   578                           INTCON equ 0Bh ;# 
   579  000B                     # 539 "C:\Program Files (x86)\Microchip\xc8\v2.00\pic\include\pic16f887.h"
   580                           PIR1 equ 0Ch ;# 
   581  000C                     # 595 "C:\Program Files (x86)\Microchip\xc8\v2.00\pic\include\pic16f887.h"
   582                           PIR2 equ 0Dh ;# 
   583  000D                     # 652 "C:\Program Files (x86)\Microchip\xc8\v2.00\pic\include\pic16f887.h"
   584                           TMR1 equ 0Eh ;# 
   585  000E                     # 659 "C:\Program Files (x86)\Microchip\xc8\v2.00\pic\include\pic16f887.h"
   586                           TMR1L equ 0Eh ;# 
   587  000E                     # 666 "C:\Program Files (x86)\Microchip\xc8\v2.00\pic\include\pic16f887.h"
   588                           TMR1H equ 0Fh ;# 
   589  000F                     # 673 "C:\Program Files (x86)\Microchip\xc8\v2.00\pic\include\pic16f887.h"
   590                           T1CON equ 010h ;# 
   591  0010                     # 767 "C:\Program Files (x86)\Microchip\xc8\v2.00\pic\include\pic16f887.h"
   592                           TMR2 equ 011h ;# 
   593  0011                     # 774 "C:\Program Files (x86)\Microchip\xc8\v2.00\pic\include\pic16f887.h"
   594                           T2CON equ 012h ;# 
   595  0012                     # 845 "C:\Program Files (x86)\Microchip\xc8\v2.00\pic\include\pic16f887.h"
   596                           SSPBUF equ 013h ;# 
   597  0013                     # 852 "C:\Program Files (x86)\Microchip\xc8\v2.00\pic\include\pic16f887.h"
   598                           SSPCON equ 014h ;# 
   599  0014                     # 922 "C:\Program Files (x86)\Microchip\xc8\v2.00\pic\include\pic16f887.h"
   600                           CCPR1 equ 015h ;# 
   601  0015                     # 929 "C:\Program Files (x86)\Microchip\xc8\v2.00\pic\include\pic16f887.h"
   602                           CCPR1L equ 015h ;# 
   603  0015                     # 936 "C:\Program Files (x86)\Microchip\xc8\v2.00\pic\include\pic16f887.h"
   604                           CCPR1H equ 016h ;# 
   605  0016                     # 943 "C:\Program Files (x86)\Microchip\xc8\v2.00\pic\include\pic16f887.h"
   606                           CCP1CON equ 017h ;# 
   607  0017                     # 1040 "C:\Program Files (x86)\Microchip\xc8\v2.00\pic\include\pic16f887.h"
   608                           RCSTA equ 018h ;# 
   609  0018                     # 1135 "C:\Program Files (x86)\Microchip\xc8\v2.00\pic\include\pic16f887.h"
   610                           TXREG equ 019h ;# 
   611  0019                     # 1142 "C:\Program Files (x86)\Microchip\xc8\v2.00\pic\include\pic16f887.h"
   612                           RCREG equ 01Ah ;# 
   613  001A                     # 1149 "C:\Program Files (x86)\Microchip\xc8\v2.00\pic\include\pic16f887.h"
   614                           CCPR2 equ 01Bh ;# 
   615  001B                     # 1156 "C:\Program Files (x86)\Microchip\xc8\v2.00\pic\include\pic16f887.h"
   616                           CCPR2L equ 01Bh ;# 
   617  001B                     # 1163 "C:\Program Files (x86)\Microchip\xc8\v2.00\pic\include\pic16f887.h"
   618                           CCPR2H equ 01Ch ;# 
   619  001C                     # 1170 "C:\Program Files (x86)\Microchip\xc8\v2.00\pic\include\pic16f887.h"
   620                           CCP2CON equ 01Dh ;# 
   621  001D                     # 1240 "C:\Program Files (x86)\Microchip\xc8\v2.00\pic\include\pic16f887.h"
   622                           ADRESH equ 01Eh ;# 
   623  001E                     # 1247 "C:\Program Files (x86)\Microchip\xc8\v2.00\pic\include\pic16f887.h"
   624                           ADCON0 equ 01Fh ;# 
   625  001F                     # 1348 "C:\Program Files (x86)\Microchip\xc8\v2.00\pic\include\pic16f887.h"
   626                           OPTION_REG equ 081h ;# 
   627  0081                     # 1418 "C:\Program Files (x86)\Microchip\xc8\v2.00\pic\include\pic16f887.h"
   628                           TRISA equ 085h ;# 
   629  0085                     # 1480 "C:\Program Files (x86)\Microchip\xc8\v2.00\pic\include\pic16f887.h"
   630                           TRISB equ 086h ;# 
   631  0086                     # 1542 "C:\Program Files (x86)\Microchip\xc8\v2.00\pic\include\pic16f887.h"
   632                           TRISC equ 087h ;# 
   633  0087                     # 1604 "C:\Program Files (x86)\Microchip\xc8\v2.00\pic\include\pic16f887.h"
   634                           TRISD equ 088h ;# 
   635  0088                     # 1666 "C:\Program Files (x86)\Microchip\xc8\v2.00\pic\include\pic16f887.h"
   636                           TRISE equ 089h ;# 
   637  0089                     # 1704 "C:\Program Files (x86)\Microchip\xc8\v2.00\pic\include\pic16f887.h"
   638                           PIE1 equ 08Ch ;# 
   639  008C                     # 1760 "C:\Program Files (x86)\Microchip\xc8\v2.00\pic\include\pic16f887.h"
   640                           PIE2 equ 08Dh ;# 
   641  008D                     # 1817 "C:\Program Files (x86)\Microchip\xc8\v2.00\pic\include\pic16f887.h"
   642                           PCON equ 08Eh ;# 
   643  008E                     # 1864 "C:\Program Files (x86)\Microchip\xc8\v2.00\pic\include\pic16f887.h"
   644                           OSCCON equ 08Fh ;# 
   645  008F                     # 1929 "C:\Program Files (x86)\Microchip\xc8\v2.00\pic\include\pic16f887.h"
   646                           OSCTUNE equ 090h ;# 
   647  0090                     # 1981 "C:\Program Files (x86)\Microchip\xc8\v2.00\pic\include\pic16f887.h"
   648                           SSPCON2 equ 091h ;# 
   649  0091                     # 2043 "C:\Program Files (x86)\Microchip\xc8\v2.00\pic\include\pic16f887.h"
   650                           PR2 equ 092h ;# 
   651  0092                     # 2050 "C:\Program Files (x86)\Microchip\xc8\v2.00\pic\include\pic16f887.h"
   652                           SSPADD equ 093h ;# 
   653  0093                     # 2057 "C:\Program Files (x86)\Microchip\xc8\v2.00\pic\include\pic16f887.h"
   654                           SSPMSK equ 093h ;# 
   655  0093                     # 2062 "C:\Program Files (x86)\Microchip\xc8\v2.00\pic\include\pic16f887.h"
   656                           MSK equ 093h ;# 
   657  0093                     # 2179 "C:\Program Files (x86)\Microchip\xc8\v2.00\pic\include\pic16f887.h"
   658                           SSPSTAT equ 094h ;# 
   659  0094                     # 2348 "C:\Program Files (x86)\Microchip\xc8\v2.00\pic\include\pic16f887.h"
   660                           WPUB equ 095h ;# 
   661  0095                     # 2418 "C:\Program Files (x86)\Microchip\xc8\v2.00\pic\include\pic16f887.h"
   662                           IOCB equ 096h ;# 
   663  0096                     # 2488 "C:\Program Files (x86)\Microchip\xc8\v2.00\pic\include\pic16f887.h"
   664                           VRCON equ 097h ;# 
   665  0097                     # 2558 "C:\Program Files (x86)\Microchip\xc8\v2.00\pic\include\pic16f887.h"
   666                           TXSTA equ 098h ;# 
   667  0098                     # 2644 "C:\Program Files (x86)\Microchip\xc8\v2.00\pic\include\pic16f887.h"
   668                           SPBRG equ 099h ;# 
   669  0099                     # 2706 "C:\Program Files (x86)\Microchip\xc8\v2.00\pic\include\pic16f887.h"
   670                           SPBRGH equ 09Ah ;# 
   671  009A                     # 2776 "C:\Program Files (x86)\Microchip\xc8\v2.00\pic\include\pic16f887.h"
   672                           PWM1CON equ 09Bh ;# 
   673  009B                     # 2846 "C:\Program Files (x86)\Microchip\xc8\v2.00\pic\include\pic16f887.h"
   674                           ECCPAS equ 09Ch ;# 
   675  009C                     # 2928 "C:\Program Files (x86)\Microchip\xc8\v2.00\pic\include\pic16f887.h"
   676                           PSTRCON equ 09Dh ;# 
   677  009D                     # 2972 "C:\Program Files (x86)\Microchip\xc8\v2.00\pic\include\pic16f887.h"
   678                           ADRESL equ 09Eh ;# 
   679  009E                     # 2979 "C:\Program Files (x86)\Microchip\xc8\v2.00\pic\include\pic16f887.h"
   680                           ADCON1 equ 09Fh ;# 
   681  009F                     # 3013 "C:\Program Files (x86)\Microchip\xc8\v2.00\pic\include\pic16f887.h"
   682                           WDTCON equ 0105h ;# 
   683  0105                     # 3066 "C:\Program Files (x86)\Microchip\xc8\v2.00\pic\include\pic16f887.h"
   684                           CM1CON0 equ 0107h ;# 
   685  0107                     # 3131 "C:\Program Files (x86)\Microchip\xc8\v2.00\pic\include\pic16f887.h"
   686                           CM2CON0 equ 0108h ;# 
   687  0108                     # 3196 "C:\Program Files (x86)\Microchip\xc8\v2.00\pic\include\pic16f887.h"
   688                           CM2CON1 equ 0109h ;# 
   689  0109                     # 3247 "C:\Program Files (x86)\Microchip\xc8\v2.00\pic\include\pic16f887.h"
   690                           EEDATA equ 010Ch ;# 
   691  010C                     # 3252 "C:\Program Files (x86)\Microchip\xc8\v2.00\pic\include\pic16f887.h"
   692                           EEDAT equ 010Ch ;# 
   693  010C                     # 3259 "C:\Program Files (x86)\Microchip\xc8\v2.00\pic\include\pic16f887.h"
   694                           EEADR equ 010Dh ;# 
   695  010D                     # 3266 "C:\Program Files (x86)\Microchip\xc8\v2.00\pic\include\pic16f887.h"
   696                           EEDATH equ 010Eh ;# 
   697  010E                     # 3273 "C:\Program Files (x86)\Microchip\xc8\v2.00\pic\include\pic16f887.h"
   698                           EEADRH equ 010Fh ;# 
   699  010F                     # 3280 "C:\Program Files (x86)\Microchip\xc8\v2.00\pic\include\pic16f887.h"
   700                           SRCON equ 0185h ;# 
   701  0185                     # 3337 "C:\Program Files (x86)\Microchip\xc8\v2.00\pic\include\pic16f887.h"
   702                           BAUDCTL equ 0187h ;# 
   703  0187                     # 3389 "C:\Program Files (x86)\Microchip\xc8\v2.00\pic\include\pic16f887.h"
   704                           ANSEL equ 0188h ;# 
   705  0188                     # 3451 "C:\Program Files (x86)\Microchip\xc8\v2.00\pic\include\pic16f887.h"
   706                           ANSELH equ 0189h ;# 
   707  0189                     # 3501 "C:\Program Files (x86)\Microchip\xc8\v2.00\pic\include\pic16f887.h"
   708                           EECON1 equ 018Ch ;# 
   709  018C                     # 3546 "C:\Program Files (x86)\Microchip\xc8\v2.00\pic\include\pic16f887.h"
   710                           EECON2 equ 018Dh ;# 
   711  018D                     # 54 "C:\Program Files (x86)\Microchip\xc8\v2.00\pic\include\pic16f887.h"
   712                           INDF equ 00h ;# 
   713  0000                     # 61 "C:\Program Files (x86)\Microchip\xc8\v2.00\pic\include\pic16f887.h"
   714                           TMR0 equ 01h ;# 
   715  0001                     # 68 "C:\Program Files (x86)\Microchip\xc8\v2.00\pic\include\pic16f887.h"
   716                           PCL equ 02h ;# 
   717  0002                     # 75 "C:\Program Files (x86)\Microchip\xc8\v2.00\pic\include\pic16f887.h"
   718                           STATUS equ 03h ;# 
   719  0003                     # 161 "C:\Program Files (x86)\Microchip\xc8\v2.00\pic\include\pic16f887.h"
   720                           FSR equ 04h ;# 
   721  0004                     # 168 "C:\Program Files (x86)\Microchip\xc8\v2.00\pic\include\pic16f887.h"
   722                           PORTA equ 05h ;# 
   723  0005                     # 230 "C:\Program Files (x86)\Microchip\xc8\v2.00\pic\include\pic16f887.h"
   724                           PORTB equ 06h ;# 
   725  0006                     # 292 "C:\Program Files (x86)\Microchip\xc8\v2.00\pic\include\pic16f887.h"
   726                           PORTC equ 07h ;# 
   727  0007                     # 354 "C:\Program Files (x86)\Microchip\xc8\v2.00\pic\include\pic16f887.h"
   728                           PORTD equ 08h ;# 
   729  0008                     # 416 "C:\Program Files (x86)\Microchip\xc8\v2.00\pic\include\pic16f887.h"
   730                           PORTE equ 09h ;# 
   731  0009                     # 454 "C:\Program Files (x86)\Microchip\xc8\v2.00\pic\include\pic16f887.h"
   732                           PCLATH equ 0Ah ;# 
   733  000A                     # 461 "C:\Program Files (x86)\Microchip\xc8\v2.00\pic\include\pic16f887.h"
   734                           INTCON equ 0Bh ;# 
   735  000B                     # 539 "C:\Program Files (x86)\Microchip\xc8\v2.00\pic\include\pic16f887.h"
   736                           PIR1 equ 0Ch ;# 
   737  000C                     # 595 "C:\Program Files (x86)\Microchip\xc8\v2.00\pic\include\pic16f887.h"
   738                           PIR2 equ 0Dh ;# 
   739  000D                     # 652 "C:\Program Files (x86)\Microchip\xc8\v2.00\pic\include\pic16f887.h"
   740                           TMR1 equ 0Eh ;# 
   741  000E                     # 659 "C:\Program Files (x86)\Microchip\xc8\v2.00\pic\include\pic16f887.h"
   742                           TMR1L equ 0Eh ;# 
   743  000E                     # 666 "C:\Program Files (x86)\Microchip\xc8\v2.00\pic\include\pic16f887.h"
   744                           TMR1H equ 0Fh ;# 
   745  000F                     # 673 "C:\Program Files (x86)\Microchip\xc8\v2.00\pic\include\pic16f887.h"
   746                           T1CON equ 010h ;# 
   747  0010                     # 767 "C:\Program Files (x86)\Microchip\xc8\v2.00\pic\include\pic16f887.h"
   748                           TMR2 equ 011h ;# 
   749  0011                     # 774 "C:\Program Files (x86)\Microchip\xc8\v2.00\pic\include\pic16f887.h"
   750                           T2CON equ 012h ;# 
   751  0012                     # 845 "C:\Program Files (x86)\Microchip\xc8\v2.00\pic\include\pic16f887.h"
   752                           SSPBUF equ 013h ;# 
   753  0013                     # 852 "C:\Program Files (x86)\Microchip\xc8\v2.00\pic\include\pic16f887.h"
   754                           SSPCON equ 014h ;# 
   755  0014                     # 922 "C:\Program Files (x86)\Microchip\xc8\v2.00\pic\include\pic16f887.h"
   756                           CCPR1 equ 015h ;# 
   757  0015                     # 929 "C:\Program Files (x86)\Microchip\xc8\v2.00\pic\include\pic16f887.h"
   758                           CCPR1L equ 015h ;# 
   759  0015                     # 936 "C:\Program Files (x86)\Microchip\xc8\v2.00\pic\include\pic16f887.h"
   760                           CCPR1H equ 016h ;# 
   761  0016                     # 943 "C:\Program Files (x86)\Microchip\xc8\v2.00\pic\include\pic16f887.h"
   762                           CCP1CON equ 017h ;# 
   763  0017                     # 1040 "C:\Program Files (x86)\Microchip\xc8\v2.00\pic\include\pic16f887.h"
   764                           RCSTA equ 018h ;# 
   765  0018                     # 1135 "C:\Program Files (x86)\Microchip\xc8\v2.00\pic\include\pic16f887.h"
   766                           TXREG equ 019h ;# 
   767  0019                     # 1142 "C:\Program Files (x86)\Microchip\xc8\v2.00\pic\include\pic16f887.h"
   768                           RCREG equ 01Ah ;# 
   769  001A                     # 1149 "C:\Program Files (x86)\Microchip\xc8\v2.00\pic\include\pic16f887.h"
   770                           CCPR2 equ 01Bh ;# 
   771  001B                     # 1156 "C:\Program Files (x86)\Microchip\xc8\v2.00\pic\include\pic16f887.h"
   772                           CCPR2L equ 01Bh ;# 
   773  001B                     # 1163 "C:\Program Files (x86)\Microchip\xc8\v2.00\pic\include\pic16f887.h"
   774                           CCPR2H equ 01Ch ;# 
   775  001C                     # 1170 "C:\Program Files (x86)\Microchip\xc8\v2.00\pic\include\pic16f887.h"
   776                           CCP2CON equ 01Dh ;# 
   777  001D                     # 1240 "C:\Program Files (x86)\Microchip\xc8\v2.00\pic\include\pic16f887.h"
   778                           ADRESH equ 01Eh ;# 
   779  001E                     # 1247 "C:\Program Files (x86)\Microchip\xc8\v2.00\pic\include\pic16f887.h"
   780                           ADCON0 equ 01Fh ;# 
   781  001F                     # 1348 "C:\Program Files (x86)\Microchip\xc8\v2.00\pic\include\pic16f887.h"
   782                           OPTION_REG equ 081h ;# 
   783  0081                     # 1418 "C:\Program Files (x86)\Microchip\xc8\v2.00\pic\include\pic16f887.h"
   784                           TRISA equ 085h ;# 
   785  0085                     # 1480 "C:\Program Files (x86)\Microchip\xc8\v2.00\pic\include\pic16f887.h"
   786                           TRISB equ 086h ;# 
   787  0086                     # 1542 "C:\Program Files (x86)\Microchip\xc8\v2.00\pic\include\pic16f887.h"
   788                           TRISC equ 087h ;# 
   789  0087                     # 1604 "C:\Program Files (x86)\Microchip\xc8\v2.00\pic\include\pic16f887.h"
   790                           TRISD equ 088h ;# 
   791  0088                     # 1666 "C:\Program Files (x86)\Microchip\xc8\v2.00\pic\include\pic16f887.h"
   792                           TRISE equ 089h ;# 
   793  0089                     # 1704 "C:\Program Files (x86)\Microchip\xc8\v2.00\pic\include\pic16f887.h"
   794                           PIE1 equ 08Ch ;# 
   795  008C                     # 1760 "C:\Program Files (x86)\Microchip\xc8\v2.00\pic\include\pic16f887.h"
   796                           PIE2 equ 08Dh ;# 
   797  008D                     # 1817 "C:\Program Files (x86)\Microchip\xc8\v2.00\pic\include\pic16f887.h"
   798                           PCON equ 08Eh ;# 
   799  008E                     # 1864 "C:\Program Files (x86)\Microchip\xc8\v2.00\pic\include\pic16f887.h"
   800                           OSCCON equ 08Fh ;# 
   801  008F                     # 1929 "C:\Program Files (x86)\Microchip\xc8\v2.00\pic\include\pic16f887.h"
   802                           OSCTUNE equ 090h ;# 
   803  0090                     # 1981 "C:\Program Files (x86)\Microchip\xc8\v2.00\pic\include\pic16f887.h"
   804                           SSPCON2 equ 091h ;# 
   805  0091                     # 2043 "C:\Program Files (x86)\Microchip\xc8\v2.00\pic\include\pic16f887.h"
   806                           PR2 equ 092h ;# 
   807  0092                     # 2050 "C:\Program Files (x86)\Microchip\xc8\v2.00\pic\include\pic16f887.h"
   808                           SSPADD equ 093h ;# 
   809  0093                     # 2057 "C:\Program Files (x86)\Microchip\xc8\v2.00\pic\include\pic16f887.h"
   810                           SSPMSK equ 093h ;# 
   811  0093                     # 2062 "C:\Program Files (x86)\Microchip\xc8\v2.00\pic\include\pic16f887.h"
   812                           MSK equ 093h ;# 
   813  0093                     # 2179 "C:\Program Files (x86)\Microchip\xc8\v2.00\pic\include\pic16f887.h"
   814                           SSPSTAT equ 094h ;# 
   815  0094                     # 2348 "C:\Program Files (x86)\Microchip\xc8\v2.00\pic\include\pic16f887.h"
   816                           WPUB equ 095h ;# 
   817  0095                     # 2418 "C:\Program Files (x86)\Microchip\xc8\v2.00\pic\include\pic16f887.h"
   818                           IOCB equ 096h ;# 
   819  0096                     # 2488 "C:\Program Files (x86)\Microchip\xc8\v2.00\pic\include\pic16f887.h"
   820                           VRCON equ 097h ;# 
   821  0097                     # 2558 "C:\Program Files (x86)\Microchip\xc8\v2.00\pic\include\pic16f887.h"
   822                           TXSTA equ 098h ;# 
   823  0098                     # 2644 "C:\Program Files (x86)\Microchip\xc8\v2.00\pic\include\pic16f887.h"
   824                           SPBRG equ 099h ;# 
   825  0099                     # 2706 "C:\Program Files (x86)\Microchip\xc8\v2.00\pic\include\pic16f887.h"
   826                           SPBRGH equ 09Ah ;# 
   827  009A                     # 2776 "C:\Program Files (x86)\Microchip\xc8\v2.00\pic\include\pic16f887.h"
   828                           PWM1CON equ 09Bh ;# 
   829  009B                     # 2846 "C:\Program Files (x86)\Microchip\xc8\v2.00\pic\include\pic16f887.h"
   830                           ECCPAS equ 09Ch ;# 
   831  009C                     # 2928 "C:\Program Files (x86)\Microchip\xc8\v2.00\pic\include\pic16f887.h"
   832                           PSTRCON equ 09Dh ;# 
   833  009D                     # 2972 "C:\Program Files (x86)\Microchip\xc8\v2.00\pic\include\pic16f887.h"
   834                           ADRESL equ 09Eh ;# 
   835  009E                     # 2979 "C:\Program Files (x86)\Microchip\xc8\v2.00\pic\include\pic16f887.h"
   836                           ADCON1 equ 09Fh ;# 
   837  009F                     # 3013 "C:\Program Files (x86)\Microchip\xc8\v2.00\pic\include\pic16f887.h"
   838                           WDTCON equ 0105h ;# 
   839  0105                     # 3066 "C:\Program Files (x86)\Microchip\xc8\v2.00\pic\include\pic16f887.h"
   840                           CM1CON0 equ 0107h ;# 
   841  0107                     # 3131 "C:\Program Files (x86)\Microchip\xc8\v2.00\pic\include\pic16f887.h"
   842                           CM2CON0 equ 0108h ;# 
   843  0108                     # 3196 "C:\Program Files (x86)\Microchip\xc8\v2.00\pic\include\pic16f887.h"
   844                           CM2CON1 equ 0109h ;# 
   845  0109                     # 3247 "C:\Program Files (x86)\Microchip\xc8\v2.00\pic\include\pic16f887.h"
   846                           EEDATA equ 010Ch ;# 
   847  010C                     # 3252 "C:\Program Files (x86)\Microchip\xc8\v2.00\pic\include\pic16f887.h"
   848                           EEDAT equ 010Ch ;# 
   849  010C                     # 3259 "C:\Program Files (x86)\Microchip\xc8\v2.00\pic\include\pic16f887.h"
   850                           EEADR equ 010Dh ;# 
   851  010D                     # 3266 "C:\Program Files (x86)\Microchip\xc8\v2.00\pic\include\pic16f887.h"
   852                           EEDATH equ 010Eh ;# 
   853  010E                     # 3273 "C:\Program Files (x86)\Microchip\xc8\v2.00\pic\include\pic16f887.h"
   854                           EEADRH equ 010Fh ;# 
   855  010F                     # 3280 "C:\Program Files (x86)\Microchip\xc8\v2.00\pic\include\pic16f887.h"
   856                           SRCON equ 0185h ;# 
   857  0185                     # 3337 "C:\Program Files (x86)\Microchip\xc8\v2.00\pic\include\pic16f887.h"
   858                           BAUDCTL equ 0187h ;# 
   859  0187                     # 3389 "C:\Program Files (x86)\Microchip\xc8\v2.00\pic\include\pic16f887.h"
   860                           ANSEL equ 0188h ;# 
   861  0188                     # 3451 "C:\Program Files (x86)\Microchip\xc8\v2.00\pic\include\pic16f887.h"
   862                           ANSELH equ 0189h ;# 
   863  0189                     # 3501 "C:\Program Files (x86)\Microchip\xc8\v2.00\pic\include\pic16f887.h"
   864                           EECON1 equ 018Ch ;# 
   865  018C                     # 3546 "C:\Program Files (x86)\Microchip\xc8\v2.00\pic\include\pic16f887.h"
   866                           EECON2 equ 018Dh ;# 
   867  018D                     # 54 "C:\Program Files (x86)\Microchip\xc8\v2.00\pic\include\pic16f887.h"
   868                           INDF equ 00h ;# 
   869  0000                     # 61 "C:\Program Files (x86)\Microchip\xc8\v2.00\pic\include\pic16f887.h"
   870                           TMR0 equ 01h ;# 
   871  0001                     # 68 "C:\Program Files (x86)\Microchip\xc8\v2.00\pic\include\pic16f887.h"
   872                           PCL equ 02h ;# 
   873  0002                     # 75 "C:\Program Files (x86)\Microchip\xc8\v2.00\pic\include\pic16f887.h"
   874                           STATUS equ 03h ;# 
   875  0003                     # 161 "C:\Program Files (x86)\Microchip\xc8\v2.00\pic\include\pic16f887.h"
   876                           FSR equ 04h ;# 
   877  0004                     # 168 "C:\Program Files (x86)\Microchip\xc8\v2.00\pic\include\pic16f887.h"
   878                           PORTA equ 05h ;# 
   879  0005                     # 230 "C:\Program Files (x86)\Microchip\xc8\v2.00\pic\include\pic16f887.h"
   880                           PORTB equ 06h ;# 
   881  0006                     # 292 "C:\Program Files (x86)\Microchip\xc8\v2.00\pic\include\pic16f887.h"
   882                           PORTC equ 07h ;# 
   883  0007                     # 354 "C:\Program Files (x86)\Microchip\xc8\v2.00\pic\include\pic16f887.h"
   884                           PORTD equ 08h ;# 
   885  0008                     # 416 "C:\Program Files (x86)\Microchip\xc8\v2.00\pic\include\pic16f887.h"
   886                           PORTE equ 09h ;# 
   887  0009                     # 454 "C:\Program Files (x86)\Microchip\xc8\v2.00\pic\include\pic16f887.h"
   888                           PCLATH equ 0Ah ;# 
   889  000A                     # 461 "C:\Program Files (x86)\Microchip\xc8\v2.00\pic\include\pic16f887.h"
   890                           INTCON equ 0Bh ;# 
   891  000B                     # 539 "C:\Program Files (x86)\Microchip\xc8\v2.00\pic\include\pic16f887.h"
   892                           PIR1 equ 0Ch ;# 
   893  000C                     # 595 "C:\Program Files (x86)\Microchip\xc8\v2.00\pic\include\pic16f887.h"
   894                           PIR2 equ 0Dh ;# 
   895  000D                     # 652 "C:\Program Files (x86)\Microchip\xc8\v2.00\pic\include\pic16f887.h"
   896                           TMR1 equ 0Eh ;# 
   897  000E                     # 659 "C:\Program Files (x86)\Microchip\xc8\v2.00\pic\include\pic16f887.h"
   898                           TMR1L equ 0Eh ;# 
   899  000E                     # 666 "C:\Program Files (x86)\Microchip\xc8\v2.00\pic\include\pic16f887.h"
   900                           TMR1H equ 0Fh ;# 
   901  000F                     # 673 "C:\Program Files (x86)\Microchip\xc8\v2.00\pic\include\pic16f887.h"
   902                           T1CON equ 010h ;# 
   903  0010                     # 767 "C:\Program Files (x86)\Microchip\xc8\v2.00\pic\include\pic16f887.h"
   904                           TMR2 equ 011h ;# 
   905  0011                     # 774 "C:\Program Files (x86)\Microchip\xc8\v2.00\pic\include\pic16f887.h"
   906                           T2CON equ 012h ;# 
   907  0012                     # 845 "C:\Program Files (x86)\Microchip\xc8\v2.00\pic\include\pic16f887.h"
   908                           SSPBUF equ 013h ;# 
   909  0013                     # 852 "C:\Program Files (x86)\Microchip\xc8\v2.00\pic\include\pic16f887.h"
   910                           SSPCON equ 014h ;# 
   911  0014                     # 922 "C:\Program Files (x86)\Microchip\xc8\v2.00\pic\include\pic16f887.h"
   912                           CCPR1 equ 015h ;# 
   913  0015                     # 929 "C:\Program Files (x86)\Microchip\xc8\v2.00\pic\include\pic16f887.h"
   914                           CCPR1L equ 015h ;# 
   915  0015                     # 936 "C:\Program Files (x86)\Microchip\xc8\v2.00\pic\include\pic16f887.h"
   916                           CCPR1H equ 016h ;# 
   917  0016                     # 943 "C:\Program Files (x86)\Microchip\xc8\v2.00\pic\include\pic16f887.h"
   918                           CCP1CON equ 017h ;# 
   919  0017                     # 1040 "C:\Program Files (x86)\Microchip\xc8\v2.00\pic\include\pic16f887.h"
   920                           RCSTA equ 018h ;# 
   921  0018                     # 1135 "C:\Program Files (x86)\Microchip\xc8\v2.00\pic\include\pic16f887.h"
   922                           TXREG equ 019h ;# 
   923  0019                     # 1142 "C:\Program Files (x86)\Microchip\xc8\v2.00\pic\include\pic16f887.h"
   924                           RCREG equ 01Ah ;# 
   925  001A                     # 1149 "C:\Program Files (x86)\Microchip\xc8\v2.00\pic\include\pic16f887.h"
   926                           CCPR2 equ 01Bh ;# 
   927  001B                     # 1156 "C:\Program Files (x86)\Microchip\xc8\v2.00\pic\include\pic16f887.h"
   928                           CCPR2L equ 01Bh ;# 
   929  001B                     # 1163 "C:\Program Files (x86)\Microchip\xc8\v2.00\pic\include\pic16f887.h"
   930                           CCPR2H equ 01Ch ;# 
   931  001C                     # 1170 "C:\Program Files (x86)\Microchip\xc8\v2.00\pic\include\pic16f887.h"
   932                           CCP2CON equ 01Dh ;# 
   933  001D                     # 1240 "C:\Program Files (x86)\Microchip\xc8\v2.00\pic\include\pic16f887.h"
   934                           ADRESH equ 01Eh ;# 
   935  001E                     # 1247 "C:\Program Files (x86)\Microchip\xc8\v2.00\pic\include\pic16f887.h"
   936                           ADCON0 equ 01Fh ;# 
   937  001F                     # 1348 "C:\Program Files (x86)\Microchip\xc8\v2.00\pic\include\pic16f887.h"
   938                           OPTION_REG equ 081h ;# 
   939  0081                     # 1418 "C:\Program Files (x86)\Microchip\xc8\v2.00\pic\include\pic16f887.h"
   940                           TRISA equ 085h ;# 
   941  0085                     # 1480 "C:\Program Files (x86)\Microchip\xc8\v2.00\pic\include\pic16f887.h"
   942                           TRISB equ 086h ;# 
   943  0086                     # 1542 "C:\Program Files (x86)\Microchip\xc8\v2.00\pic\include\pic16f887.h"
   944                           TRISC equ 087h ;# 
   945  0087                     # 1604 "C:\Program Files (x86)\Microchip\xc8\v2.00\pic\include\pic16f887.h"
   946                           TRISD equ 088h ;# 
   947  0088                     # 1666 "C:\Program Files (x86)\Microchip\xc8\v2.00\pic\include\pic16f887.h"
   948                           TRISE equ 089h ;# 
   949  0089                     # 1704 "C:\Program Files (x86)\Microchip\xc8\v2.00\pic\include\pic16f887.h"
   950                           PIE1 equ 08Ch ;# 
   951  008C                     # 1760 "C:\Program Files (x86)\Microchip\xc8\v2.00\pic\include\pic16f887.h"
   952                           PIE2 equ 08Dh ;# 
   953  008D                     # 1817 "C:\Program Files (x86)\Microchip\xc8\v2.00\pic\include\pic16f887.h"
   954                           PCON equ 08Eh ;# 
   955  008E                     # 1864 "C:\Program Files (x86)\Microchip\xc8\v2.00\pic\include\pic16f887.h"
   956                           OSCCON equ 08Fh ;# 
   957  008F                     # 1929 "C:\Program Files (x86)\Microchip\xc8\v2.00\pic\include\pic16f887.h"
   958                           OSCTUNE equ 090h ;# 
   959  0090                     # 1981 "C:\Program Files (x86)\Microchip\xc8\v2.00\pic\include\pic16f887.h"
   960                           SSPCON2 equ 091h ;# 
   961  0091                     # 2043 "C:\Program Files (x86)\Microchip\xc8\v2.00\pic\include\pic16f887.h"
   962                           PR2 equ 092h ;# 
   963  0092                     # 2050 "C:\Program Files (x86)\Microchip\xc8\v2.00\pic\include\pic16f887.h"
   964                           SSPADD equ 093h ;# 
   965  0093                     # 2057 "C:\Program Files (x86)\Microchip\xc8\v2.00\pic\include\pic16f887.h"
   966                           SSPMSK equ 093h ;# 
   967  0093                     # 2062 "C:\Program Files (x86)\Microchip\xc8\v2.00\pic\include\pic16f887.h"
   968                           MSK equ 093h ;# 
   969  0093                     # 2179 "C:\Program Files (x86)\Microchip\xc8\v2.00\pic\include\pic16f887.h"
   970                           SSPSTAT equ 094h ;# 
   971  0094                     # 2348 "C:\Program Files (x86)\Microchip\xc8\v2.00\pic\include\pic16f887.h"
   972                           WPUB equ 095h ;# 
   973  0095                     # 2418 "C:\Program Files (x86)\Microchip\xc8\v2.00\pic\include\pic16f887.h"
   974                           IOCB equ 096h ;# 
   975  0096                     # 2488 "C:\Program Files (x86)\Microchip\xc8\v2.00\pic\include\pic16f887.h"
   976                           VRCON equ 097h ;# 
   977  0097                     # 2558 "C:\Program Files (x86)\Microchip\xc8\v2.00\pic\include\pic16f887.h"
   978                           TXSTA equ 098h ;# 
   979  0098                     # 2644 "C:\Program Files (x86)\Microchip\xc8\v2.00\pic\include\pic16f887.h"
   980                           SPBRG equ 099h ;# 
   981  0099                     # 2706 "C:\Program Files (x86)\Microchip\xc8\v2.00\pic\include\pic16f887.h"
   982                           SPBRGH equ 09Ah ;# 
   983  009A                     # 2776 "C:\Program Files (x86)\Microchip\xc8\v2.00\pic\include\pic16f887.h"
   984                           PWM1CON equ 09Bh ;# 
   985  009B                     # 2846 "C:\Program Files (x86)\Microchip\xc8\v2.00\pic\include\pic16f887.h"
   986                           ECCPAS equ 09Ch ;# 
   987  009C                     # 2928 "C:\Program Files (x86)\Microchip\xc8\v2.00\pic\include\pic16f887.h"
   988                           PSTRCON equ 09Dh ;# 
   989  009D                     # 2972 "C:\Program Files (x86)\Microchip\xc8\v2.00\pic\include\pic16f887.h"
   990                           ADRESL equ 09Eh ;# 
   991  009E                     # 2979 "C:\Program Files (x86)\Microchip\xc8\v2.00\pic\include\pic16f887.h"
   992                           ADCON1 equ 09Fh ;# 
   993  009F                     # 3013 "C:\Program Files (x86)\Microchip\xc8\v2.00\pic\include\pic16f887.h"
   994                           WDTCON equ 0105h ;# 
   995  0105                     # 3066 "C:\Program Files (x86)\Microchip\xc8\v2.00\pic\include\pic16f887.h"
   996                           CM1CON0 equ 0107h ;# 
   997  0107                     # 3131 "C:\Program Files (x86)\Microchip\xc8\v2.00\pic\include\pic16f887.h"
   998                           CM2CON0 equ 0108h ;# 
   999  0108                     # 3196 "C:\Program Files (x86)\Microchip\xc8\v2.00\pic\include\pic16f887.h"
  1000                           CM2CON1 equ 0109h ;# 
  1001  0109                     # 3247 "C:\Program Files (x86)\Microchip\xc8\v2.00\pic\include\pic16f887.h"
  1002                           EEDATA equ 010Ch ;# 
  1003  010C                     # 3252 "C:\Program Files (x86)\Microchip\xc8\v2.00\pic\include\pic16f887.h"
  1004                           EEDAT equ 010Ch ;# 
  1005  010C                     # 3259 "C:\Program Files (x86)\Microchip\xc8\v2.00\pic\include\pic16f887.h"
  1006                           EEADR equ 010Dh ;# 
  1007  010D                     # 3266 "C:\Program Files (x86)\Microchip\xc8\v2.00\pic\include\pic16f887.h"
  1008                           EEDATH equ 010Eh ;# 
  1009  010E                     # 3273 "C:\Program Files (x86)\Microchip\xc8\v2.00\pic\include\pic16f887.h"
  1010                           EEADRH equ 010Fh ;# 
  1011  010F                     # 3280 "C:\Program Files (x86)\Microchip\xc8\v2.00\pic\include\pic16f887.h"
  1012                           SRCON equ 0185h ;# 
  1013  0185                     # 3337 "C:\Program Files (x86)\Microchip\xc8\v2.00\pic\include\pic16f887.h"
  1014                           BAUDCTL equ 0187h ;# 
  1015  0187                     # 3389 "C:\Program Files (x86)\Microchip\xc8\v2.00\pic\include\pic16f887.h"
  1016                           ANSEL equ 0188h ;# 
  1017  0188                     # 3451 "C:\Program Files (x86)\Microchip\xc8\v2.00\pic\include\pic16f887.h"
  1018                           ANSELH equ 0189h ;# 
  1019  0189                     # 3501 "C:\Program Files (x86)\Microchip\xc8\v2.00\pic\include\pic16f887.h"
  1020                           EECON1 equ 018Ch ;# 
  1021  018C                     # 3546 "C:\Program Files (x86)\Microchip\xc8\v2.00\pic\include\pic16f887.h"
  1022                           EECON2 equ 018Dh ;# 
  1023  018D                     # 54 "C:\Program Files (x86)\Microchip\xc8\v2.00\pic\include\pic16f887.h"
  1024                           INDF equ 00h ;# 
  1025  0000                     # 61 "C:\Program Files (x86)\Microchip\xc8\v2.00\pic\include\pic16f887.h"
  1026                           TMR0 equ 01h ;# 
  1027  0001                     # 68 "C:\Program Files (x86)\Microchip\xc8\v2.00\pic\include\pic16f887.h"
  1028                           PCL equ 02h ;# 
  1029  0002                     # 75 "C:\Program Files (x86)\Microchip\xc8\v2.00\pic\include\pic16f887.h"
  1030                           STATUS equ 03h ;# 
  1031  0003                     # 161 "C:\Program Files (x86)\Microchip\xc8\v2.00\pic\include\pic16f887.h"
  1032                           FSR equ 04h ;# 
  1033  0004                     # 168 "C:\Program Files (x86)\Microchip\xc8\v2.00\pic\include\pic16f887.h"
  1034                           PORTA equ 05h ;# 
  1035  0005                     # 230 "C:\Program Files (x86)\Microchip\xc8\v2.00\pic\include\pic16f887.h"
  1036                           PORTB equ 06h ;# 
  1037  0006                     # 292 "C:\Program Files (x86)\Microchip\xc8\v2.00\pic\include\pic16f887.h"
  1038                           PORTC equ 07h ;# 
  1039  0007                     # 354 "C:\Program Files (x86)\Microchip\xc8\v2.00\pic\include\pic16f887.h"
  1040                           PORTD equ 08h ;# 
  1041  0008                     # 416 "C:\Program Files (x86)\Microchip\xc8\v2.00\pic\include\pic16f887.h"
  1042                           PORTE equ 09h ;# 
  1043  0009                     # 454 "C:\Program Files (x86)\Microchip\xc8\v2.00\pic\include\pic16f887.h"
  1044                           PCLATH equ 0Ah ;# 
  1045  000A                     # 461 "C:\Program Files (x86)\Microchip\xc8\v2.00\pic\include\pic16f887.h"
  1046                           INTCON equ 0Bh ;# 
  1047  000B                     # 539 "C:\Program Files (x86)\Microchip\xc8\v2.00\pic\include\pic16f887.h"
  1048                           PIR1 equ 0Ch ;# 
  1049  000C                     # 595 "C:\Program Files (x86)\Microchip\xc8\v2.00\pic\include\pic16f887.h"
  1050                           PIR2 equ 0Dh ;# 
  1051  000D                     # 652 "C:\Program Files (x86)\Microchip\xc8\v2.00\pic\include\pic16f887.h"
  1052                           TMR1 equ 0Eh ;# 
  1053  000E                     # 659 "C:\Program Files (x86)\Microchip\xc8\v2.00\pic\include\pic16f887.h"
  1054                           TMR1L equ 0Eh ;# 
  1055  000E                     # 666 "C:\Program Files (x86)\Microchip\xc8\v2.00\pic\include\pic16f887.h"
  1056                           TMR1H equ 0Fh ;# 
  1057  000F                     # 673 "C:\Program Files (x86)\Microchip\xc8\v2.00\pic\include\pic16f887.h"
  1058                           T1CON equ 010h ;# 
  1059  0010                     # 767 "C:\Program Files (x86)\Microchip\xc8\v2.00\pic\include\pic16f887.h"
  1060                           TMR2 equ 011h ;# 
  1061  0011                     # 774 "C:\Program Files (x86)\Microchip\xc8\v2.00\pic\include\pic16f887.h"
  1062                           T2CON equ 012h ;# 
  1063  0012                     # 845 "C:\Program Files (x86)\Microchip\xc8\v2.00\pic\include\pic16f887.h"
  1064                           SSPBUF equ 013h ;# 
  1065  0013                     # 852 "C:\Program Files (x86)\Microchip\xc8\v2.00\pic\include\pic16f887.h"
  1066                           SSPCON equ 014h ;# 
  1067  0014                     # 922 "C:\Program Files (x86)\Microchip\xc8\v2.00\pic\include\pic16f887.h"
  1068                           CCPR1 equ 015h ;# 
  1069  0015                     # 929 "C:\Program Files (x86)\Microchip\xc8\v2.00\pic\include\pic16f887.h"
  1070                           CCPR1L equ 015h ;# 
  1071  0015                     # 936 "C:\Program Files (x86)\Microchip\xc8\v2.00\pic\include\pic16f887.h"
  1072                           CCPR1H equ 016h ;# 
  1073  0016                     # 943 "C:\Program Files (x86)\Microchip\xc8\v2.00\pic\include\pic16f887.h"
  1074                           CCP1CON equ 017h ;# 
  1075  0017                     # 1040 "C:\Program Files (x86)\Microchip\xc8\v2.00\pic\include\pic16f887.h"
  1076                           RCSTA equ 018h ;# 
  1077  0018                     # 1135 "C:\Program Files (x86)\Microchip\xc8\v2.00\pic\include\pic16f887.h"
  1078                           TXREG equ 019h ;# 
  1079  0019                     # 1142 "C:\Program Files (x86)\Microchip\xc8\v2.00\pic\include\pic16f887.h"
  1080                           RCREG equ 01Ah ;# 
  1081  001A                     # 1149 "C:\Program Files (x86)\Microchip\xc8\v2.00\pic\include\pic16f887.h"
  1082                           CCPR2 equ 01Bh ;# 
  1083  001B                     # 1156 "C:\Program Files (x86)\Microchip\xc8\v2.00\pic\include\pic16f887.h"
  1084                           CCPR2L equ 01Bh ;# 
  1085  001B                     # 1163 "C:\Program Files (x86)\Microchip\xc8\v2.00\pic\include\pic16f887.h"
  1086                           CCPR2H equ 01Ch ;# 
  1087  001C                     # 1170 "C:\Program Files (x86)\Microchip\xc8\v2.00\pic\include\pic16f887.h"
  1088                           CCP2CON equ 01Dh ;# 
  1089  001D                     # 1240 "C:\Program Files (x86)\Microchip\xc8\v2.00\pic\include\pic16f887.h"
  1090                           ADRESH equ 01Eh ;# 
  1091  001E                     # 1247 "C:\Program Files (x86)\Microchip\xc8\v2.00\pic\include\pic16f887.h"
  1092                           ADCON0 equ 01Fh ;# 
  1093  001F                     # 1348 "C:\Program Files (x86)\Microchip\xc8\v2.00\pic\include\pic16f887.h"
  1094                           OPTION_REG equ 081h ;# 
  1095  0081                     # 1418 "C:\Program Files (x86)\Microchip\xc8\v2.00\pic\include\pic16f887.h"
  1096                           TRISA equ 085h ;# 
  1097  0085                     # 1480 "C:\Program Files (x86)\Microchip\xc8\v2.00\pic\include\pic16f887.h"
  1098                           TRISB equ 086h ;# 
  1099  0086                     # 1542 "C:\Program Files (x86)\Microchip\xc8\v2.00\pic\include\pic16f887.h"
  1100                           TRISC equ 087h ;# 
  1101  0087                     # 1604 "C:\Program Files (x86)\Microchip\xc8\v2.00\pic\include\pic16f887.h"
  1102                           TRISD equ 088h ;# 
  1103  0088                     # 1666 "C:\Program Files (x86)\Microchip\xc8\v2.00\pic\include\pic16f887.h"
  1104                           TRISE equ 089h ;# 
  1105  0089                     # 1704 "C:\Program Files (x86)\Microchip\xc8\v2.00\pic\include\pic16f887.h"
  1106                           PIE1 equ 08Ch ;# 
  1107  008C                     # 1760 "C:\Program Files (x86)\Microchip\xc8\v2.00\pic\include\pic16f887.h"
  1108                           PIE2 equ 08Dh ;# 
  1109  008D                     # 1817 "C:\Program Files (x86)\Microchip\xc8\v2.00\pic\include\pic16f887.h"
  1110                           PCON equ 08Eh ;# 
  1111  008E                     # 1864 "C:\Program Files (x86)\Microchip\xc8\v2.00\pic\include\pic16f887.h"
  1112                           OSCCON equ 08Fh ;# 
  1113  008F                     # 1929 "C:\Program Files (x86)\Microchip\xc8\v2.00\pic\include\pic16f887.h"
  1114                           OSCTUNE equ 090h ;# 
  1115  0090                     # 1981 "C:\Program Files (x86)\Microchip\xc8\v2.00\pic\include\pic16f887.h"
  1116                           SSPCON2 equ 091h ;# 
  1117  0091                     # 2043 "C:\Program Files (x86)\Microchip\xc8\v2.00\pic\include\pic16f887.h"
  1118                           PR2 equ 092h ;# 
  1119  0092                     # 2050 "C:\Program Files (x86)\Microchip\xc8\v2.00\pic\include\pic16f887.h"
  1120                           SSPADD equ 093h ;# 
  1121  0093                     # 2057 "C:\Program Files (x86)\Microchip\xc8\v2.00\pic\include\pic16f887.h"
  1122                           SSPMSK equ 093h ;# 
  1123  0093                     # 2062 "C:\Program Files (x86)\Microchip\xc8\v2.00\pic\include\pic16f887.h"
  1124                           MSK equ 093h ;# 
  1125  0093                     # 2179 "C:\Program Files (x86)\Microchip\xc8\v2.00\pic\include\pic16f887.h"
  1126                           SSPSTAT equ 094h ;# 
  1127  0094                     # 2348 "C:\Program Files (x86)\Microchip\xc8\v2.00\pic\include\pic16f887.h"
  1128                           WPUB equ 095h ;# 
  1129  0095                     # 2418 "C:\Program Files (x86)\Microchip\xc8\v2.00\pic\include\pic16f887.h"
  1130                           IOCB equ 096h ;# 
  1131  0096                     # 2488 "C:\Program Files (x86)\Microchip\xc8\v2.00\pic\include\pic16f887.h"
  1132                           VRCON equ 097h ;# 
  1133  0097                     # 2558 "C:\Program Files (x86)\Microchip\xc8\v2.00\pic\include\pic16f887.h"
  1134                           TXSTA equ 098h ;# 
  1135  0098                     # 2644 "C:\Program Files (x86)\Microchip\xc8\v2.00\pic\include\pic16f887.h"
  1136                           SPBRG equ 099h ;# 
  1137  0099                     # 2706 "C:\Program Files (x86)\Microchip\xc8\v2.00\pic\include\pic16f887.h"
  1138                           SPBRGH equ 09Ah ;# 
  1139  009A                     # 2776 "C:\Program Files (x86)\Microchip\xc8\v2.00\pic\include\pic16f887.h"
  1140                           PWM1CON equ 09Bh ;# 
  1141  009B                     # 2846 "C:\Program Files (x86)\Microchip\xc8\v2.00\pic\include\pic16f887.h"
  1142                           ECCPAS equ 09Ch ;# 
  1143  009C                     # 2928 "C:\Program Files (x86)\Microchip\xc8\v2.00\pic\include\pic16f887.h"
  1144                           PSTRCON equ 09Dh ;# 
  1145  009D                     # 2972 "C:\Program Files (x86)\Microchip\xc8\v2.00\pic\include\pic16f887.h"
  1146                           ADRESL equ 09Eh ;# 
  1147  009E                     # 2979 "C:\Program Files (x86)\Microchip\xc8\v2.00\pic\include\pic16f887.h"
  1148                           ADCON1 equ 09Fh ;# 
  1149  009F                     # 3013 "C:\Program Files (x86)\Microchip\xc8\v2.00\pic\include\pic16f887.h"
  1150                           WDTCON equ 0105h ;# 
  1151  0105                     # 3066 "C:\Program Files (x86)\Microchip\xc8\v2.00\pic\include\pic16f887.h"
  1152                           CM1CON0 equ 0107h ;# 
  1153  0107                     # 3131 "C:\Program Files (x86)\Microchip\xc8\v2.00\pic\include\pic16f887.h"
  1154                           CM2CON0 equ 0108h ;# 
  1155  0108                     # 3196 "C:\Program Files (x86)\Microchip\xc8\v2.00\pic\include\pic16f887.h"
  1156                           CM2CON1 equ 0109h ;# 
  1157  0109                     # 3247 "C:\Program Files (x86)\Microchip\xc8\v2.00\pic\include\pic16f887.h"
  1158                           EEDATA equ 010Ch ;# 
  1159  010C                     # 3252 "C:\Program Files (x86)\Microchip\xc8\v2.00\pic\include\pic16f887.h"
  1160                           EEDAT equ 010Ch ;# 
  1161  010C                     # 3259 "C:\Program Files (x86)\Microchip\xc8\v2.00\pic\include\pic16f887.h"
  1162                           EEADR equ 010Dh ;# 
  1163  010D                     # 3266 "C:\Program Files (x86)\Microchip\xc8\v2.00\pic\include\pic16f887.h"
  1164                           EEDATH equ 010Eh ;# 
  1165  010E                     # 3273 "C:\Program Files (x86)\Microchip\xc8\v2.00\pic\include\pic16f887.h"
  1166                           EEADRH equ 010Fh ;# 
  1167  010F                     # 3280 "C:\Program Files (x86)\Microchip\xc8\v2.00\pic\include\pic16f887.h"
  1168                           SRCON equ 0185h ;# 
  1169  0185                     # 3337 "C:\Program Files (x86)\Microchip\xc8\v2.00\pic\include\pic16f887.h"
  1170                           BAUDCTL equ 0187h ;# 
  1171  0187                     # 3389 "C:\Program Files (x86)\Microchip\xc8\v2.00\pic\include\pic16f887.h"
  1172                           ANSEL equ 0188h ;# 
  1173  0188                     # 3451 "C:\Program Files (x86)\Microchip\xc8\v2.00\pic\include\pic16f887.h"
  1174                           ANSELH equ 0189h ;# 
  1175  0189                     # 3501 "C:\Program Files (x86)\Microchip\xc8\v2.00\pic\include\pic16f887.h"
  1176                           EECON1 equ 018Ch ;# 
  1177  018C                     # 3546 "C:\Program Files (x86)\Microchip\xc8\v2.00\pic\include\pic16f887.h"
  1178                           EECON2 equ 018Dh ;# 
  1179  018D                     # 54 "C:\Program Files (x86)\Microchip\xc8\v2.00\pic\include\pic16f887.h"
  1180                           INDF equ 00h ;# 
  1181  0000                     # 61 "C:\Program Files (x86)\Microchip\xc8\v2.00\pic\include\pic16f887.h"
  1182                           TMR0 equ 01h ;# 
  1183  0001                     # 68 "C:\Program Files (x86)\Microchip\xc8\v2.00\pic\include\pic16f887.h"
  1184                           PCL equ 02h ;# 
  1185  0002                     # 75 "C:\Program Files (x86)\Microchip\xc8\v2.00\pic\include\pic16f887.h"
  1186                           STATUS equ 03h ;# 
  1187  0003                     # 161 "C:\Program Files (x86)\Microchip\xc8\v2.00\pic\include\pic16f887.h"
  1188                           FSR equ 04h ;# 
  1189  0004                     # 168 "C:\Program Files (x86)\Microchip\xc8\v2.00\pic\include\pic16f887.h"
  1190                           PORTA equ 05h ;# 
  1191  0005                     # 230 "C:\Program Files (x86)\Microchip\xc8\v2.00\pic\include\pic16f887.h"
  1192                           PORTB equ 06h ;# 
  1193  0006                     # 292 "C:\Program Files (x86)\Microchip\xc8\v2.00\pic\include\pic16f887.h"
  1194                           PORTC equ 07h ;# 
  1195  0007                     # 354 "C:\Program Files (x86)\Microchip\xc8\v2.00\pic\include\pic16f887.h"
  1196                           PORTD equ 08h ;# 
  1197  0008                     # 416 "C:\Program Files (x86)\Microchip\xc8\v2.00\pic\include\pic16f887.h"
  1198                           PORTE equ 09h ;# 
  1199  0009                     # 454 "C:\Program Files (x86)\Microchip\xc8\v2.00\pic\include\pic16f887.h"
  1200                           PCLATH equ 0Ah ;# 
  1201  000A                     # 461 "C:\Program Files (x86)\Microchip\xc8\v2.00\pic\include\pic16f887.h"
  1202                           INTCON equ 0Bh ;# 
  1203  000B                     # 539 "C:\Program Files (x86)\Microchip\xc8\v2.00\pic\include\pic16f887.h"
  1204                           PIR1 equ 0Ch ;# 
  1205  000C                     # 595 "C:\Program Files (x86)\Microchip\xc8\v2.00\pic\include\pic16f887.h"
  1206                           PIR2 equ 0Dh ;# 
  1207  000D                     # 652 "C:\Program Files (x86)\Microchip\xc8\v2.00\pic\include\pic16f887.h"
  1208                           TMR1 equ 0Eh ;# 
  1209  000E                     # 659 "C:\Program Files (x86)\Microchip\xc8\v2.00\pic\include\pic16f887.h"
  1210                           TMR1L equ 0Eh ;# 
  1211  000E                     # 666 "C:\Program Files (x86)\Microchip\xc8\v2.00\pic\include\pic16f887.h"
  1212                           TMR1H equ 0Fh ;# 
  1213  000F                     # 673 "C:\Program Files (x86)\Microchip\xc8\v2.00\pic\include\pic16f887.h"
  1214                           T1CON equ 010h ;# 
  1215  0010                     # 767 "C:\Program Files (x86)\Microchip\xc8\v2.00\pic\include\pic16f887.h"
  1216                           TMR2 equ 011h ;# 
  1217  0011                     # 774 "C:\Program Files (x86)\Microchip\xc8\v2.00\pic\include\pic16f887.h"
  1218                           T2CON equ 012h ;# 
  1219  0012                     # 845 "C:\Program Files (x86)\Microchip\xc8\v2.00\pic\include\pic16f887.h"
  1220                           SSPBUF equ 013h ;# 
  1221  0013                     # 852 "C:\Program Files (x86)\Microchip\xc8\v2.00\pic\include\pic16f887.h"
  1222                           SSPCON equ 014h ;# 
  1223  0014                     # 922 "C:\Program Files (x86)\Microchip\xc8\v2.00\pic\include\pic16f887.h"
  1224                           CCPR1 equ 015h ;# 
  1225  0015                     # 929 "C:\Program Files (x86)\Microchip\xc8\v2.00\pic\include\pic16f887.h"
  1226                           CCPR1L equ 015h ;# 
  1227  0015                     # 936 "C:\Program Files (x86)\Microchip\xc8\v2.00\pic\include\pic16f887.h"
  1228                           CCPR1H equ 016h ;# 
  1229  0016                     # 943 "C:\Program Files (x86)\Microchip\xc8\v2.00\pic\include\pic16f887.h"
  1230                           CCP1CON equ 017h ;# 
  1231  0017                     # 1040 "C:\Program Files (x86)\Microchip\xc8\v2.00\pic\include\pic16f887.h"
  1232                           RCSTA equ 018h ;# 
  1233  0018                     # 1135 "C:\Program Files (x86)\Microchip\xc8\v2.00\pic\include\pic16f887.h"
  1234                           TXREG equ 019h ;# 
  1235  0019                     # 1142 "C:\Program Files (x86)\Microchip\xc8\v2.00\pic\include\pic16f887.h"
  1236                           RCREG equ 01Ah ;# 
  1237  001A                     # 1149 "C:\Program Files (x86)\Microchip\xc8\v2.00\pic\include\pic16f887.h"
  1238                           CCPR2 equ 01Bh ;# 
  1239  001B                     # 1156 "C:\Program Files (x86)\Microchip\xc8\v2.00\pic\include\pic16f887.h"
  1240                           CCPR2L equ 01Bh ;# 
  1241  001B                     # 1163 "C:\Program Files (x86)\Microchip\xc8\v2.00\pic\include\pic16f887.h"
  1242                           CCPR2H equ 01Ch ;# 
  1243  001C                     # 1170 "C:\Program Files (x86)\Microchip\xc8\v2.00\pic\include\pic16f887.h"
  1244                           CCP2CON equ 01Dh ;# 
  1245  001D                     # 1240 "C:\Program Files (x86)\Microchip\xc8\v2.00\pic\include\pic16f887.h"
  1246                           ADRESH equ 01Eh ;# 
  1247  001E                     # 1247 "C:\Program Files (x86)\Microchip\xc8\v2.00\pic\include\pic16f887.h"
  1248                           ADCON0 equ 01Fh ;# 
  1249  001F                     # 1348 "C:\Program Files (x86)\Microchip\xc8\v2.00\pic\include\pic16f887.h"
  1250                           OPTION_REG equ 081h ;# 
  1251  0081                     # 1418 "C:\Program Files (x86)\Microchip\xc8\v2.00\pic\include\pic16f887.h"
  1252                           TRISA equ 085h ;# 
  1253  0085                     # 1480 "C:\Program Files (x86)\Microchip\xc8\v2.00\pic\include\pic16f887.h"
  1254                           TRISB equ 086h ;# 
  1255  0086                     # 1542 "C:\Program Files (x86)\Microchip\xc8\v2.00\pic\include\pic16f887.h"
  1256                           TRISC equ 087h ;# 
  1257  0087                     # 1604 "C:\Program Files (x86)\Microchip\xc8\v2.00\pic\include\pic16f887.h"
  1258                           TRISD equ 088h ;# 
  1259  0088                     # 1666 "C:\Program Files (x86)\Microchip\xc8\v2.00\pic\include\pic16f887.h"
  1260                           TRISE equ 089h ;# 
  1261  0089                     # 1704 "C:\Program Files (x86)\Microchip\xc8\v2.00\pic\include\pic16f887.h"
  1262                           PIE1 equ 08Ch ;# 
  1263  008C                     # 1760 "C:\Program Files (x86)\Microchip\xc8\v2.00\pic\include\pic16f887.h"
  1264                           PIE2 equ 08Dh ;# 
  1265  008D                     # 1817 "C:\Program Files (x86)\Microchip\xc8\v2.00\pic\include\pic16f887.h"
  1266                           PCON equ 08Eh ;# 
  1267  008E                     # 1864 "C:\Program Files (x86)\Microchip\xc8\v2.00\pic\include\pic16f887.h"
  1268                           OSCCON equ 08Fh ;# 
  1269  008F                     # 1929 "C:\Program Files (x86)\Microchip\xc8\v2.00\pic\include\pic16f887.h"
  1270                           OSCTUNE equ 090h ;# 
  1271  0090                     # 1981 "C:\Program Files (x86)\Microchip\xc8\v2.00\pic\include\pic16f887.h"
  1272                           SSPCON2 equ 091h ;# 
  1273  0091                     # 2043 "C:\Program Files (x86)\Microchip\xc8\v2.00\pic\include\pic16f887.h"
  1274                           PR2 equ 092h ;# 
  1275  0092                     # 2050 "C:\Program Files (x86)\Microchip\xc8\v2.00\pic\include\pic16f887.h"
  1276                           SSPADD equ 093h ;# 
  1277  0093                     # 2057 "C:\Program Files (x86)\Microchip\xc8\v2.00\pic\include\pic16f887.h"
  1278                           SSPMSK equ 093h ;# 
  1279  0093                     # 2062 "C:\Program Files (x86)\Microchip\xc8\v2.00\pic\include\pic16f887.h"
  1280                           MSK equ 093h ;# 
  1281  0093                     # 2179 "C:\Program Files (x86)\Microchip\xc8\v2.00\pic\include\pic16f887.h"
  1282                           SSPSTAT equ 094h ;# 
  1283  0094                     # 2348 "C:\Program Files (x86)\Microchip\xc8\v2.00\pic\include\pic16f887.h"
  1284                           WPUB equ 095h ;# 
  1285  0095                     # 2418 "C:\Program Files (x86)\Microchip\xc8\v2.00\pic\include\pic16f887.h"
  1286                           IOCB equ 096h ;# 
  1287  0096                     # 2488 "C:\Program Files (x86)\Microchip\xc8\v2.00\pic\include\pic16f887.h"
  1288                           VRCON equ 097h ;# 
  1289  0097                     # 2558 "C:\Program Files (x86)\Microchip\xc8\v2.00\pic\include\pic16f887.h"
  1290                           TXSTA equ 098h ;# 
  1291  0098                     # 2644 "C:\Program Files (x86)\Microchip\xc8\v2.00\pic\include\pic16f887.h"
  1292                           SPBRG equ 099h ;# 
  1293  0099                     # 2706 "C:\Program Files (x86)\Microchip\xc8\v2.00\pic\include\pic16f887.h"
  1294                           SPBRGH equ 09Ah ;# 
  1295  009A                     # 2776 "C:\Program Files (x86)\Microchip\xc8\v2.00\pic\include\pic16f887.h"
  1296                           PWM1CON equ 09Bh ;# 
  1297  009B                     # 2846 "C:\Program Files (x86)\Microchip\xc8\v2.00\pic\include\pic16f887.h"
  1298                           ECCPAS equ 09Ch ;# 
  1299  009C                     # 2928 "C:\Program Files (x86)\Microchip\xc8\v2.00\pic\include\pic16f887.h"
  1300                           PSTRCON equ 09Dh ;# 
  1301  009D                     # 2972 "C:\Program Files (x86)\Microchip\xc8\v2.00\pic\include\pic16f887.h"
  1302                           ADRESL equ 09Eh ;# 
  1303  009E                     # 2979 "C:\Program Files (x86)\Microchip\xc8\v2.00\pic\include\pic16f887.h"
  1304                           ADCON1 equ 09Fh ;# 
  1305  009F                     # 3013 "C:\Program Files (x86)\Microchip\xc8\v2.00\pic\include\pic16f887.h"
  1306                           WDTCON equ 0105h ;# 
  1307  0105                     # 3066 "C:\Program Files (x86)\Microchip\xc8\v2.00\pic\include\pic16f887.h"
  1308                           CM1CON0 equ 0107h ;# 
  1309  0107                     # 3131 "C:\Program Files (x86)\Microchip\xc8\v2.00\pic\include\pic16f887.h"
  1310                           CM2CON0 equ 0108h ;# 
  1311  0108                     # 3196 "C:\Program Files (x86)\Microchip\xc8\v2.00\pic\include\pic16f887.h"
  1312                           CM2CON1 equ 0109h ;# 
  1313  0109                     # 3247 "C:\Program Files (x86)\Microchip\xc8\v2.00\pic\include\pic16f887.h"
  1314                           EEDATA equ 010Ch ;# 
  1315  010C                     # 3252 "C:\Program Files (x86)\Microchip\xc8\v2.00\pic\include\pic16f887.h"
  1316                           EEDAT equ 010Ch ;# 
  1317  010C                     # 3259 "C:\Program Files (x86)\Microchip\xc8\v2.00\pic\include\pic16f887.h"
  1318                           EEADR equ 010Dh ;# 
  1319  010D                     # 3266 "C:\Program Files (x86)\Microchip\xc8\v2.00\pic\include\pic16f887.h"
  1320                           EEDATH equ 010Eh ;# 
  1321  010E                     # 3273 "C:\Program Files (x86)\Microchip\xc8\v2.00\pic\include\pic16f887.h"
  1322                           EEADRH equ 010Fh ;# 
  1323  010F                     # 3280 "C:\Program Files (x86)\Microchip\xc8\v2.00\pic\include\pic16f887.h"
  1324                           SRCON equ 0185h ;# 
  1325  0185                     # 3337 "C:\Program Files (x86)\Microchip\xc8\v2.00\pic\include\pic16f887.h"
  1326                           BAUDCTL equ 0187h ;# 
  1327  0187                     # 3389 "C:\Program Files (x86)\Microchip\xc8\v2.00\pic\include\pic16f887.h"
  1328                           ANSEL equ 0188h ;# 
  1329  0188                     # 3451 "C:\Program Files (x86)\Microchip\xc8\v2.00\pic\include\pic16f887.h"
  1330                           ANSELH equ 0189h ;# 
  1331  0189                     # 3501 "C:\Program Files (x86)\Microchip\xc8\v2.00\pic\include\pic16f887.h"
  1332                           EECON1 equ 018Ch ;# 
  1333  018C                     # 3546 "C:\Program Files (x86)\Microchip\xc8\v2.00\pic\include\pic16f887.h"
  1334                           EECON2 equ 018Dh ;# 
  1335  018D                     	FNCALL	_main,_lcd_init
  1336                           	FNCALL	_main,_lcd_print
  1337                           	FNCALL	_main,_prs_detect
  1338                           	FNCALL	_main,_prs_init
  1339                           	FNCALL	_lcd_print,_lcd_dataReg
  1340                           	FNCALL	_lcd_print,_lcd_lincol
  1341                           	FNCALL	_lcd_lincol,_lcd_instReg
  1342                           	FNCALL	_lcd_init,_delay_ms
  1343                           	FNCALL	_lcd_init,_lcd_instReg
  1344                           	FNROOT	_main
  1345                           	global	_prs
  1346                           	global	_aviso
  1347                           	global	_t_sensor
  1348                           	global	_num
  1349                           	global	_PORTCbits
  1350                           _PORTCbits	set	0x7
  1351  0007                     	global	_PORTD
  1352                           _PORTD	set	0x8
  1353  0008                     	global	_PORTDbits
  1354                           _PORTDbits	set	0x8
  1355  0008                     	global	_TRISCbits
  1356                           _TRISCbits	set	0x87
  1357  0087                     	global	_TRISDbits
  1358                           _TRISDbits	set	0x88
  1359  0088                     psect	strings,class=STRING,delta=2,noexec
  1360                           global __pstrings
  1361                           __pstrings:
  1362  0003                     stringtab:
  1363  0003                     	global    __stringtab
  1364                           __stringtab:
  1365  0003                     ;	String table - string pointers are 1 byte each
  1366                           stringcode:stringdir:
  1367  0003                     movlw high(stringdir)
      + 0003                     stringdir:	
  1368  0003  3000               movwf pclath
  1369  0004  008A               movf fsr,w
  1370  0005  0804               incf fsr
  1371  0006  0A84               	addwf pc
  1372  0007  0782               	global __stringbase
  1373                           __stringbase:
  1374  0008                     	retlw	0
  1375  0008  3400               psect	strings
  1376                           	global    __end_of__stringtab
  1377                           __end_of__stringtab:
  1378  0009                     	
  1379                           STR_1:	
  1380  0009                     	retlw	97	;'a'
  1381  0009  3461               	retlw	118	;'v'
  1382  000A  3476               	retlw	105	;'i'
  1383  000B  3469               	retlw	115	;'s'
  1384  000C  3473               	retlw	111	;'o'
  1385  000D  346F               	retlw	0
  1386  000E  3400               psect	strings
  1387                           ; #config settings
  1388                           global __CFG_FOSC$INTRC_NOCLKOUT
  1389                           __CFG_FOSC$INTRC_NOCLKOUT equ 0x0
  1390  0000                     global __CFG_WDTE$OFF
  1391                           __CFG_WDTE$OFF equ 0x0
  1392  0000                     global __CFG_PWRTE$OFF
  1393                           __CFG_PWRTE$OFF equ 0x0
  1394  0000                     global __CFG_MCLRE$OFF
  1395                           __CFG_MCLRE$OFF equ 0x0
  1396  0000                     global __CFG_CP$OFF
  1397                           __CFG_CP$OFF equ 0x0
  1398  0000                     global __CFG_CPD$OFF
  1399                           __CFG_CPD$OFF equ 0x0
  1400  0000                     global __CFG_BOREN$OFF
  1401                           __CFG_BOREN$OFF equ 0x0
  1402  0000                     global __CFG_IESO$OFF
  1403                           __CFG_IESO$OFF equ 0x0
  1404  0000                     global __CFG_FCMEN$OFF
  1405                           __CFG_FCMEN$OFF equ 0x0
  1406  0000                     global __CFG_LVP$OFF
  1407                           __CFG_LVP$OFF equ 0x0
  1408  0000                     global __CFG_BOR4V$BOR40V
  1409                           __CFG_BOR4V$BOR40V equ 0x0
  1410  0000                     global __CFG_WRT$OFF
  1411                           __CFG_WRT$OFF equ 0x0
  1412  0000                     	file	"C:\Users\21193442\AppData\Local\Temp\sf2c."
  1413                           	line	#
  1414                           psect cinit,class=CODE,delta=2
  1415                           global start_initialization
  1416                           start_initialization:
  1417  07F2                     
  1418                           global __initialization
  1419                           __initialization:
  1420  07F2                     psect	bssCOMMON,class=COMMON,space=1,noexec
  1421                           global __pbssCOMMON
  1422                           __pbssCOMMON:
  1423  007C                     _prs:
  1424  007C                            ds      1
  1425  007C                     
  1426                           _aviso:
  1427  007D                            ds      1
  1428  007D                     
  1429                           psect	bssBANK0,class=BANK0,space=1,noexec
  1430                           global __pbssBANK0
  1431                           __pbssBANK0:
  1432  0020                     _t_sensor:
  1433  0020                            ds      2
  1434  0020                     
  1435                           _modo:
  1436  0022                            ds      2
  1437  0022                     
  1438                           _num:
  1439  0024                            ds      2
  1440  0024                     
  1441                           	file	"C:\Users\21193442\AppData\Local\Temp\sf2c."
  1442                           	line	#
  1443                           ; Clear objects allocated to COMMON
  1444                           psect cinit,class=CODE,delta=2,merge=1
  1445                           	clrf	((__pbssCOMMON)+0)&07Fh
  1446  07F2  01FC               	clrf	((__pbssCOMMON)+1)&07Fh
  1447  07F3  01FD               ; Clear objects allocated to BANK0
  1448                           psect cinit,class=CODE,delta=2,merge=1
  1449                           	bcf	status, 5	;RP0=0, select bank0
  1450  07F4  1283               	bcf	status, 6	;RP1=0, select bank0
  1451  07F5  1303               	clrf	((__pbssBANK0)+0)&07Fh
  1452  07F6  01A0               	clrf	((__pbssBANK0)+1)&07Fh
  1453  07F7  01A1               	clrf	((__pbssBANK0)+2)&07Fh
  1454  07F8  01A2               	clrf	((__pbssBANK0)+3)&07Fh
  1455  07F9  01A3               	clrf	((__pbssBANK0)+4)&07Fh
  1456  07FA  01A4               	clrf	((__pbssBANK0)+5)&07Fh
  1457  07FB  01A5               psect cinit,class=CODE,delta=2,merge=1
  1458                           global end_of_initialization,__end_of__initialization
  1459                           
  1460                           ;End of C runtime variable initialization code
  1461                           
  1462                           end_of_initialization:
  1463  07FC                     __end_of__initialization:
  1464  07FC                     clrf status
  1465  07FC  0183               ljmp _main	;jump to C main() function
  1466  07FD  120A  118A  2E4A   psect	cstackCOMMON,class=COMMON,space=1,noexec
  1467                           global __pcstackCOMMON
  1468                           __pcstackCOMMON:
  1469  0070                     ?_lcd_init:	; 1 bytes @ 0x0
  1470  0070                     ?_prs_init:	; 1 bytes @ 0x0
  1471  0070                     ??_prs_init:	; 1 bytes @ 0x0
  1472  0070                     ?_prs_detect:	; 1 bytes @ 0x0
  1473  0070                     ?_main:	; 1 bytes @ 0x0
  1474  0070                     ?_delay_ms:	; 1 bytes @ 0x0
  1475  0070                     ?_lcd_instReg:	; 1 bytes @ 0x0
  1476  0070                     ??_lcd_instReg:	; 1 bytes @ 0x0
  1477  0070                     ?_lcd_dataReg:	; 1 bytes @ 0x0
  1478  0070                     ??_lcd_dataReg:	; 1 bytes @ 0x0
  1479  0070                     	global	prs_detect@w
  1480                           prs_detect@w:	; 1 bytes @ 0x0
  1481  0070                     	global	delay_ms@t
  1482                           delay_ms@t:	; 2 bytes @ 0x0
  1483  0070                     	ds	1
  1484  0070                     ??_prs_detect:	; 1 bytes @ 0x1
  1485  0071                     	ds	1
  1486  0071                     ??_delay_ms:	; 1 bytes @ 0x2
  1487  0072                     	global	lcd_instReg@i
  1488                           lcd_instReg@i:	; 1 bytes @ 0x2
  1489  0072                     	global	lcd_dataReg@d
  1490                           lcd_dataReg@d:	; 1 bytes @ 0x2
  1491  0072                     	global	prs_detect@s
  1492                           prs_detect@s:	; 1 bytes @ 0x2
  1493  0072                     	ds	1
  1494  0072                     ??_lcd_init:	; 1 bytes @ 0x3
  1495  0073                     ?_lcd_lincol:	; 1 bytes @ 0x3
  1496  0073                     	global	lcd_lincol@col
  1497                           lcd_lincol@col:	; 1 bytes @ 0x3
  1498  0073                     	ds	1
  1499  0073                     ??_lcd_lincol:	; 1 bytes @ 0x4
  1500  0074                     	ds	1
  1501  0074                     	global	lcd_lincol@lin
  1502                           lcd_lincol@lin:	; 1 bytes @ 0x5
  1503  0075                     	ds	1
  1504  0075                     ?_lcd_print:	; 1 bytes @ 0x6
  1505  0076                     	global	lcd_print@col
  1506                           lcd_print@col:	; 1 bytes @ 0x6
  1507  0076                     	ds	1
  1508  0076                     	global	lcd_print@str
  1509                           lcd_print@str:	; 1 bytes @ 0x7
  1510  0077                     	ds	1
  1511  0077                     ??_lcd_print:	; 1 bytes @ 0x8
  1512  0078                     	ds	1
  1513  0078                     	global	lcd_print@pos
  1514                           lcd_print@pos:	; 1 bytes @ 0x9
  1515  0079                     	ds	1
  1516  0079                     	global	lcd_print@lin
  1517                           lcd_print@lin:	; 1 bytes @ 0xA
  1518  007A                     	ds	1
  1519  007A                     ??_main:	; 1 bytes @ 0xB
  1520  007B                     	ds	1
  1521  007B                     ;!
  1522                           ;!Data Sizes:
  1523                           ;!    Strings     6
  1524                           ;!    Constant    0
  1525                           ;!    Data        0
  1526                           ;!    BSS         8
  1527                           ;!    Persistent  0
  1528                           ;!    Stack       0
  1529                           ;!
  1530                           ;!Auto Spaces:
  1531                           ;!    Space          Size  Autos    Used
  1532                           ;!    COMMON           14     12      14
  1533                           ;!    BANK0            80      0       6
  1534                           ;!    BANK1            80      0       0
  1535                           ;!    BANK3            96      0       0
  1536                           ;!    BANK2            96      0       0
  1537                           
  1538                           ;!
  1539                           ;!Pointer List with Targets:
  1540                           ;!
  1541                           ;!    lcd_print@str	PTR const unsigned char  size(1) Largest target is 6
  1542                           ;!		 -> STR_1(CODE[6]), 
  1543                           ;!
  1544                           
  1545                           
  1546                           ;!
  1547                           ;!Critical Paths under _main in COMMON
  1548                           ;!
  1549                           ;!    _main->_lcd_print
  1550                           ;!    _lcd_print->_lcd_lincol
  1551                           ;!    _lcd_lincol->_lcd_instReg
  1552                           ;!    _lcd_init->_delay_ms
  1553                           ;!    _lcd_init->_lcd_instReg
  1554                           ;!
  1555                           ;!Critical Paths under _main in BANK0
  1556                           ;!
  1557                           ;!    None.
  1558                           ;!
  1559                           ;!Critical Paths under _main in BANK1
  1560                           ;!
  1561                           ;!    None.
  1562                           ;!
  1563                           ;!Critical Paths under _main in BANK3
  1564                           ;!
  1565                           ;!    None.
  1566                           ;!
  1567                           ;!Critical Paths under _main in BANK2
  1568                           ;!
  1569                           ;!    None.
  1570                           
  1571 ;;
  1572 ;;Main: autosize = 0, tempsize = 1, incstack = 0, save=0
  1573 ;;
  1574                           
  1575                           ;!
  1576                           ;!Call Graph Tables:
  1577                           ;!
  1578                           ;! ---------------------------------------------------------------------------------
  1579                           ;! (Depth) Function   	        Calls       Base Space   Used Autos Params    Refs
  1580                           ;! ---------------------------------------------------------------------------------
  1581                           ;! (0) _main                                                 1     1      0    1294
  1582                           ;!                                             11 COMMON     1     1      0
  1583                           ;!                           _lcd_init
  1584                           ;!                          _lcd_print
  1585                           ;!                         _prs_detect
  1586                           ;!                           _prs_init
  1587                           ;! ---------------------------------------------------------------------------------
  1588                           ;! (1) _prs_init                                             0     0      0       0
  1589                           ;! ---------------------------------------------------------------------------------
  1590                           ;! (1) _prs_detect                                           3     2      1     186
  1591                           ;!                                              0 COMMON     3     2      1
  1592                           ;! ---------------------------------------------------------------------------------
  1593                           ;! (1) _lcd_print                                            5     3      2     681
  1594                           ;!                                              6 COMMON     5     3      2
  1595                           ;!                        _lcd_dataReg
  1596                           ;!                         _lcd_lincol
  1597                           ;! ---------------------------------------------------------------------------------
  1598                           ;! (2) _lcd_lincol                                           3     2      1     372
  1599                           ;!                                              3 COMMON     3     2      1
  1600                           ;!                        _lcd_instReg
  1601                           ;! ---------------------------------------------------------------------------------
  1602                           ;! (2) _lcd_dataReg                                          3     3      0      44
  1603                           ;!                                              0 COMMON     3     3      0
  1604                           ;! ---------------------------------------------------------------------------------
  1605                           ;! (1) _lcd_init                                             0     0      0     427
  1606                           ;!                           _delay_ms
  1607                           ;!                        _lcd_instReg
  1608                           ;! ---------------------------------------------------------------------------------
  1609                           ;! (3) _lcd_instReg                                          3     3      0     176
  1610                           ;!                                              0 COMMON     3     3      0
  1611                           ;! ---------------------------------------------------------------------------------
  1612                           ;! (2) _delay_ms                                             3     1      2     251
  1613                           ;!                                              0 COMMON     3     1      2
  1614                           ;! ---------------------------------------------------------------------------------
  1615                           ;! Estimated maximum stack depth 3
  1616                           ;! ---------------------------------------------------------------------------------
  1617                           ;!
  1618                           ;! Call Graph Graphs:
  1619                           ;!
  1620                           ;! _main (ROOT)
  1621                           ;!   _lcd_init
  1622                           ;!     _delay_ms
  1623                           ;!     _lcd_instReg
  1624                           ;!   _lcd_print
  1625                           ;!     _lcd_dataReg
  1626                           ;!     _lcd_lincol
  1627                           ;!       _lcd_instReg
  1628                           ;!   _prs_detect
  1629                           ;!   _prs_init
  1630                           ;!
  1631                           
  1632                           ;! Address spaces:
  1633                           
  1634                           ;!Name               Size   Autos  Total    Cost      Usage
  1635                           ;!BITCOMMON            E      0       0       0        0.0%
  1636                           ;!EEDATA             100      0       0       0        0.0%
  1637                           ;!NULL                 0      0       0       0        0.0%
  1638                           ;!CODE                 0      0       0       0        0.0%
  1639                           ;!COMMON               E      C       E       1      100.0%
  1640                           ;!BITSFR0              0      0       0       1        0.0%
  1641                           ;!SFR0                 0      0       0       1        0.0%
  1642                           ;!BITSFR1              0      0       0       2        0.0%
  1643                           ;!SFR1                 0      0       0       2        0.0%
  1644                           ;!STACK                0      0       0       2        0.0%
  1645                           ;!ABS                  0      0      14       3        0.0%
  1646                           ;!BITBANK0            50      0       0       4        0.0%
  1647                           ;!BITSFR3              0      0       0       4        0.0%
  1648                           ;!SFR3                 0      0       0       4        0.0%
  1649                           ;!BANK0               50      0       6       5        7.5%
  1650                           ;!BITSFR2              0      0       0       5        0.0%
  1651                           ;!SFR2                 0      0       0       5        0.0%
  1652                           ;!BITBANK1            50      0       0       6        0.0%
  1653                           ;!BANK1               50      0       0       7        0.0%
  1654                           ;!BITBANK3            60      0       0       8        0.0%
  1655                           ;!BANK3               60      0       0       9        0.0%
  1656                           ;!BITBANK2            60      0       0      10        0.0%
  1657                           ;!BANK2               60      0       0      11        0.0%
  1658                           ;!DATA                 0      0      14      12        0.0%
  1659                           
  1660                           	global	_main
  1661                           
  1662 ;; *************** function _main *****************
  1663 ;; Defined at:
  1664 ;;		line 20 in file "main.c"
  1665 ;; Parameters:    Size  Location     Type
  1666 ;;		None
  1667 ;; Auto vars:     Size  Location     Type
  1668 ;;		None
  1669 ;; Return value:  Size  Location     Type
  1670 ;;                  1    wreg      void 
  1671 ;; Registers used:
  1672 ;;		wreg, fsr0l, fsr0h, status,2, status,0, btemp+1, pclath, cstack
  1673 ;; Tracked objects:
  1674 ;;		On entry : B00/0
  1675 ;;		On exit  : 0/0
  1676 ;;		Unchanged: 0/0
  1677 ;; Data sizes:     COMMON   BANK0   BANK1   BANK3   BANK2
  1678 ;;      Params:         0       0       0       0       0
  1679 ;;      Locals:         0       0       0       0       0
  1680 ;;      Temps:          1       0       0       0       0
  1681 ;;      Totals:         1       0       0       0       0
  1682 ;;Total ram usage:        1 bytes
  1683 ;; Hardware stack levels required when called:    3
  1684 ;; This function calls:
  1685 ;;		_lcd_init
  1686 ;;		_lcd_print
  1687 ;;		_prs_detect
  1688 ;;		_prs_init
  1689 ;; This function is called by:
  1690 ;;		Startup code after reset
  1691 ;; This function uses a non-reentrant model
  1692 ;;
  1693                           psect	maintext,global,class=CODE,delta=2,split=1,group=0
  1694                           	file	"main.c"
  1695                           	line	20
  1696                           global __pmaintext
  1697                           __pmaintext:	;psect for function _main
  1698  064A                     psect	maintext
  1699                           	file	"main.c"
  1700                           	line	20
  1701                           	global	__size_of_main
  1702                           	__size_of_main	equ	__end_of_main-_main
  1703  0031                     	
  1704                           _main:	
  1705  064A                     ;incstack = 0
  1706                           	opt	stack 5
  1707                           ; Regs used in _main: [wreg-fsr0h+status,2+status,0+btemp+1+pclath+cstack]
  1708                           	line	22
  1709                           	
  1710                           l1007:	
  1711  064A                     ;main.c: 22:     num = 0;
  1712                           	bcf	status, 5	;RP0=0, select bank0
  1713  064A  1283               	bcf	status, 6	;RP1=0, select bank0
  1714  064B  1303               	clrf	(_num)
  1715  064C  01A4               	clrf	(_num+1)
  1716  064D  01A5               	line	23
  1717                           ;main.c: 23:     prs = 0;
  1718                           	clrf	(_prs)
  1719  064E  01FC               	line	25
  1720                           	
  1721                           l1009:	
  1722  064F                     ;main.c: 25:     lcd_init();
  1723                           	fcall	_lcd_init
  1724  064F  120A  118A  26E4  120A  118A  	line	26
  1725                           	
  1726                           l1011:	
  1727  0654                     ;main.c: 26:     prs_init();
  1728                           	fcall	_prs_init
  1729  0654  120A  118A  2615  120A  118A  	goto	l1013
  1730  0659  2E5A               	line	28
  1731                           ;main.c: 28:     while(1)
  1732                           	
  1733                           l19:	
  1734  065A                     	line	31
  1735                           	
  1736                           l1013:	
  1737  065A                     ;main.c: 29:     {;main.c: 31:         prs_detect( prs, aviso);
  1738                           	movf	(_aviso),w
  1739  065A  087D               	movwf	(??_main+0)+0
  1740  065B  00FB               	movf	(??_main+0)+0,w
  1741  065C  087B               	movwf	(prs_detect@w)
  1742  065D  00F0               	movf	(_prs),w
  1743  065E  087C               	fcall	_prs_detect
  1744  065F  120A  118A  2723  120A  118A  	line	33
  1745                           	
  1746                           l1015:	
  1747  0664                     ;main.c: 33:         if( prs == 1)
  1748                           		decf	((_prs)),w
  1749  0664  037C               	btfss	status,2
  1750  0665  1D03               	goto	u491
  1751  0666  2E68               	goto	u490
  1752  0667  2E69               u491:
  1753  0668                     	goto	l1013
  1754  0668  2E5A               u490:
  1755  0669                     	line	35
  1756                           	
  1757                           l1017:	
  1758  0669                     ;main.c: 34:         {;main.c: 35:          lcd_print(0, 1, "aviso" );
  1759                           	clrf	(lcd_print@col)
  1760  0669  01F6               	incf	(lcd_print@col),f
  1761  066A  0AF6               	movlw	(low((((STR_1)-__stringbase)|8000h)))&0ffh
  1762  066B  3001               	movwf	(??_main+0)+0
  1763  066C  00FB               	movf	(??_main+0)+0,w
  1764  066D  087B               	movwf	(lcd_print@str)
  1765  066E  00F7               	movlw	low(0)
  1766  066F  3000               	fcall	_lcd_print
  1767  0670  120A  118A  267B  120A  118A  	goto	l1013
  1768  0675  2E5A               	line	36
  1769                           ;main.c: 36:         }
  1770                           	
  1771                           l20:	
  1772  0676                     	goto	l1013
  1773  0676  2E5A               	line	37
  1774                           ;main.c: 37:     }
  1775                           	
  1776                           l21:	
  1777  0677                     	goto	l1013
  1778  0677  2E5A               	
  1779                           l22:	
  1780  0678                     	line	38
  1781                           	
  1782                           l23:	
  1783  0678                     	global	start
  1784                           	ljmp	start
  1785  0678  120A  118A  2800   	opt stack 0
  1786                           GLOBAL	__end_of_main
  1787                           	__end_of_main:
  1788  067B                     	signat	_main,89
  1789                           	global	_prs_init
  1790                           
  1791 ;; *************** function _prs_init *****************
  1792 ;; Defined at:
  1793 ;;		line 17 in file "prs.c"
  1794 ;; Parameters:    Size  Location     Type
  1795 ;;		None
  1796 ;; Auto vars:     Size  Location     Type
  1797 ;;		None
  1798 ;; Return value:  Size  Location     Type
  1799 ;;                  1    wreg      void 
  1800 ;; Registers used:
  1801 ;;		status,2
  1802 ;; Tracked objects:
  1803 ;;		On entry : 0/0
  1804 ;;		On exit  : 0/0
  1805 ;;		Unchanged: 0/0
  1806 ;; Data sizes:     COMMON   BANK0   BANK1   BANK3   BANK2
  1807 ;;      Params:         0       0       0       0       0
  1808 ;;      Locals:         0       0       0       0       0
  1809 ;;      Temps:          0       0       0       0       0
  1810 ;;      Totals:         0       0       0       0       0
  1811 ;;Total ram usage:        0 bytes
  1812 ;; Hardware stack levels used:    1
  1813 ;; This function calls:
  1814 ;;		Nothing
  1815 ;; This function is called by:
  1816 ;;		_main
  1817 ;; This function uses a non-reentrant model
  1818 ;;
  1819                           psect	text1,local,class=CODE,delta=2,merge=1,group=0
  1820                           	file	"prs.c"
  1821                           	line	17
  1822                           global __ptext1
  1823                           __ptext1:	;psect for function _prs_init
  1824  0615                     psect	text1
  1825                           	file	"prs.c"
  1826                           	line	17
  1827                           	global	__size_of_prs_init
  1828                           	__size_of_prs_init	equ	__end_of_prs_init-_prs_init
  1829  000B                     	
  1830                           _prs_init:	
  1831  0615                     ;incstack = 0
  1832                           	opt	stack 7
  1833                           ; Regs used in _prs_init: [status,2]
  1834                           	line	19
  1835                           	
  1836                           l967:	
  1837  0615                     ;prs.c: 19:     TRISCbits.TRISC2 = 1;
  1838                           	bsf	status, 5	;RP0=1, select bank1
  1839  0615  1683               	bcf	status, 6	;RP1=0, select bank1
  1840  0616  1303               	bsf	(135)^080h,2	;volatile
  1841  0617  1507               	line	20
  1842                           ;prs.c: 20:     TRISCbits.TRISC0 = 0;
  1843                           	bcf	(135)^080h,0	;volatile
  1844  0618  1007               	line	21
  1845                           	
  1846                           l969:	
  1847  0619                     ;prs.c: 21:     t_sensor = 0;
  1848                           	bcf	status, 5	;RP0=0, select bank0
  1849  0619  1283               	bcf	status, 6	;RP1=0, select bank0
  1850  061A  1303               	clrf	(_t_sensor)
  1851  061B  01A0               	clrf	(_t_sensor+1)
  1852  061C  01A1               	line	23
  1853                           	
  1854                           l971:	
  1855  061D                     ;prs.c: 23:     PORTCbits.RC0 = 0;
  1856                           	bcf	(7),0	;volatile
  1857  061D  1007               	line	24
  1858                           	
  1859                           l973:	
  1860  061E                     ;prs.c: 24:     PORTCbits.RC2 = 0;
  1861                           	bcf	(7),2	;volatile
  1862  061E  1107               	line	26
  1863                           	
  1864                           l118:	
  1865  061F                     	return
  1866  061F  0008               	opt stack 0
  1867                           GLOBAL	__end_of_prs_init
  1868                           	__end_of_prs_init:
  1869  0620                     	signat	_prs_init,89
  1870                           	global	_prs_detect
  1871                           
  1872 ;; *************** function _prs_detect *****************
  1873 ;; Defined at:
  1874 ;;		line 28 in file "prs.c"
  1875 ;; Parameters:    Size  Location     Type
  1876 ;;  s               1    wreg     unsigned char 
  1877 ;;  w               1    0[COMMON] unsigned char 
  1878 ;; Auto vars:     Size  Location     Type
  1879 ;;  s               1    2[COMMON] unsigned char 
  1880 ;; Return value:  Size  Location     Type
  1881 ;;                  1    wreg      void 
  1882 ;; Registers used:
  1883 ;;		wreg, status,2, status,0, btemp+1
  1884 ;; Tracked objects:
  1885 ;;		On entry : 0/0
  1886 ;;		On exit  : 0/0
  1887 ;;		Unchanged: 0/0
  1888 ;; Data sizes:     COMMON   BANK0   BANK1   BANK3   BANK2
  1889 ;;      Params:         1       0       0       0       0
  1890 ;;      Locals:         1       0       0       0       0
  1891 ;;      Temps:          1       0       0       0       0
  1892 ;;      Totals:         3       0       0       0       0
  1893 ;;Total ram usage:        3 bytes
  1894 ;; Hardware stack levels used:    1
  1895 ;; This function calls:
  1896 ;;		Nothing
  1897 ;; This function is called by:
  1898 ;;		_main
  1899 ;; This function uses a non-reentrant model
  1900 ;;
  1901                           psect	text2,local,class=CODE,delta=2,merge=1,group=0
  1902                           	line	28
  1903                           global __ptext2
  1904                           __ptext2:	;psect for function _prs_detect
  1905  0723                     psect	text2
  1906                           	file	"prs.c"
  1907                           	line	28
  1908                           	global	__size_of_prs_detect
  1909                           	__size_of_prs_detect	equ	__end_of_prs_detect-_prs_detect
  1910  0044                     	
  1911                           _prs_detect:	
  1912  0723                     ;incstack = 0
  1913                           	opt	stack 7
  1914                           ; Regs used in _prs_detect: [wreg+status,2+status,0+btemp+1]
  1915                           ;prs_detect@s stored from wreg
  1916                           	movwf	(prs_detect@s)
  1917  0723  00F2               	line	31
  1918                           	
  1919                           l975:	
  1920  0724                     ;prs.c: 28: void prs_detect (unsigned char s, unsigned char w);prs.c: 29: {;prs.c: 31:  
                                    PORTCbits.RC2 = s;
  1921                           	rrf	(prs_detect@s),w
  1922  0724  0C72               	bcf	status, 5	;RP0=0, select bank0
  1923  0725  1283               	bcf	status, 6	;RP1=0, select bank0
  1924  0726  1303               	skipc
  1925  0727  1C03               	bcf	(7),2	;volatile
  1926  0728  1107               	skipnc
  1927  0729  1803               	bsf	(7),2	;volatile
  1928  072A  1507               	line	34
  1929                           	
  1930                           l977:	
  1931  072B                     ;prs.c: 34:     if (s == 1)
  1932                           		decf	((prs_detect@s)),w
  1933  072B  0372               	btfss	status,2
  1934  072C  1D03               	goto	u451
  1935  072D  2F2F               	goto	u450
  1936  072E  2F30               u451:
  1937  072F                     	goto	l985
  1938  072F  2F3B               u450:
  1939  0730                     	line	36
  1940                           	
  1941                           l979:	
  1942  0730                     ;prs.c: 35:     {;prs.c: 36:         t_sensor = 4500;
  1943                           	movlw	094h
  1944  0730  3094               	movwf	(_t_sensor)
  1945  0731  00A0               	movlw	011h
  1946  0732  3011               	movwf	((_t_sensor))+1
  1947  0733  00A1               	line	37
  1948                           	
  1949                           l981:	
  1950  0734                     ;prs.c: 37:         PORTCbits.RC0 = 1;
  1951                           	bsf	(7),0	;volatile
  1952  0734  1407               	line	38
  1953                           	
  1954                           l983:	
  1955  0735                     ;prs.c: 38:         PORTCbits.RC0 = w;
  1956                           	rrf	(prs_detect@w),w
  1957  0735  0C70               	skipc
  1958  0736  1C03               	bcf	(7),0	;volatile
  1959  0737  1007               	skipnc
  1960  0738  1803               	bsf	(7),0	;volatile
  1961  0739  1407               	goto	l985
  1962  073A  2F3B               	line	39
  1963                           ;prs.c: 39:     }
  1964                           	
  1965                           l121:	
  1966  073B                     	line	41
  1967                           	
  1968                           l985:	
  1969  073B                     ;prs.c: 41:     if(s == 0)
  1970                           	movf	((prs_detect@s)),w
  1971  073B  0872               	btfss	status,2
  1972  073C  1D03               	goto	u461
  1973  073D  2F3F               	goto	u460
  1974  073E  2F40               u461:
  1975  073F                     	goto	l124
  1976  073F  2F66               u460:
  1977  0740                     	line	43
  1978                           	
  1979                           l987:	
  1980  0740                     ;prs.c: 42:     {;prs.c: 43:         --t_sensor;
  1981                           	movlw	0FFh
  1982  0740  30FF               	addwf	(_t_sensor),f
  1983  0741  07A0               	skipnc
  1984  0742  1803               	incf	(_t_sensor+1),f
  1985  0743  0AA1               	movlw	0FFh
  1986  0744  30FF               	addwf	(_t_sensor+1),f
  1987  0745  07A1               	line	44
  1988                           ;prs.c: 44:         _delay((unsigned long)((1)*(4000000/4000.0)));
  1989                           	opt asmopt_push
  1990                           opt asmopt_off
  1991                           	movlw	199
  1992  0746  30C7               movwf	((??_prs_detect+0)+0),f
  1993  0747  00F1               	u597:
  1994  0748                     	nop2
  1995  0748  2F49               decfsz	(??_prs_detect+0)+0,f
  1996  0749  0BF1               	goto	u597
  1997  074A  2F48               	nop2
  1998  074B  2F4C               	nop2
  1999  074C  2F4D               opt asmopt_pop
  2000                           
  2001                           	line	46
  2002                           	
  2003                           l989:	
  2004  074D                     ;prs.c: 46:         if(t_sensor <=0)
  2005                           	bcf	status, 5	;RP0=0, select bank0
  2006  074D  1283               	bcf	status, 6	;RP1=0, select bank0
  2007  074E  1303               	movf	(_t_sensor+1),w
  2008  074F  0821               	xorlw	80h
  2009  0750  3A80               	movwf	btemp+1
  2010  0751  00FF               	movlw	(0)^80h
  2011  0752  3080               	subwf	btemp+1,w
  2012  0753  027F               	skipz
  2013  0754  1D03               	goto	u475
  2014  0755  2F58               	movlw	01h
  2015  0756  3001               	subwf	(_t_sensor),w
  2016  0757  0220               u475:
  2017  0758                     
  2018                           	skipnc
  2019  0758  1803               	goto	u471
  2020  0759  2F5B               	goto	u470
  2021  075A  2F5C               u471:
  2022  075B                     	goto	l124
  2023  075B  2F66               u470:
  2024  075C                     	line	48
  2025                           	
  2026                           l991:	
  2027  075C                     ;prs.c: 47:         {;prs.c: 48:             PORTCbits.RC0 = 0;
  2028                           	bcf	status, 5	;RP0=0, select bank0
  2029  075C  1283               	bcf	status, 6	;RP1=0, select bank0
  2030  075D  1303               	bcf	(7),0	;volatile
  2031  075E  1007               	line	49
  2032                           	
  2033                           l993:	
  2034  075F                     ;prs.c: 49:             PORTCbits.RC0 = w;
  2035                           	rrf	(prs_detect@w),w
  2036  075F  0C70               	skipc
  2037  0760  1C03               	bcf	(7),0	;volatile
  2038  0761  1007               	skipnc
  2039  0762  1803               	bsf	(7),0	;volatile
  2040  0763  1407               	goto	l124
  2041  0764  2F66               	line	50
  2042                           ;prs.c: 50:         }
  2043                           	
  2044                           l123:	
  2045  0765                     	goto	l124
  2046  0765  2F66               	line	51
  2047                           ;prs.c: 51:     }
  2048                           	
  2049                           l122:	
  2050  0766                     	line	52
  2051                           	
  2052                           l124:	
  2053  0766                     	return
  2054  0766  0008               	opt stack 0
  2055                           GLOBAL	__end_of_prs_detect
  2056                           	__end_of_prs_detect:
  2057  0767                     	signat	_prs_detect,8313
  2058                           	global	_lcd_print
  2059                           
  2060 ;; *************** function _lcd_print *****************
  2061 ;; Defined at:
  2062 ;;		line 157 in file "lcd.c"
  2063 ;; Parameters:    Size  Location     Type
  2064 ;;  lin             1    wreg     unsigned char 
  2065 ;;  col             1    6[COMMON] unsigned char 
  2066 ;;  str             1    7[COMMON] PTR const unsigned char 
  2067 ;;		 -> STR_1(6), 
  2068 ;; Auto vars:     Size  Location     Type
  2069 ;;  lin             1   10[COMMON] unsigned char 
  2070 ;;  pos             1    9[COMMON] unsigned char 
  2071 ;; Return value:  Size  Location     Type
  2072 ;;                  1    wreg      void 
  2073 ;; Registers used:
  2074 ;;		wreg, fsr0l, fsr0h, status,2, status,0, pclath, cstack
  2075 ;; Tracked objects:
  2076 ;;		On entry : 0/0
  2077 ;;		On exit  : 0/0
  2078 ;;		Unchanged: 0/0
  2079 ;; Data sizes:     COMMON   BANK0   BANK1   BANK3   BANK2
  2080 ;;      Params:         2       0       0       0       0
  2081 ;;      Locals:         2       0       0       0       0
  2082 ;;      Temps:          1       0       0       0       0
  2083 ;;      Totals:         5       0       0       0       0
  2084 ;;Total ram usage:        5 bytes
  2085 ;; Hardware stack levels used:    1
  2086 ;; Hardware stack levels required when called:    2
  2087 ;; This function calls:
  2088 ;;		_lcd_dataReg
  2089 ;;		_lcd_lincol
  2090 ;; This function is called by:
  2091 ;;		_main
  2092 ;; This function uses a non-reentrant model
  2093 ;;
  2094                           psect	text3,local,class=CODE,delta=2,merge=1,group=0
  2095                           	file	"lcd.c"
  2096                           	line	157
  2097                           global __ptext3
  2098                           __ptext3:	;psect for function _lcd_print
  2099  067B                     psect	text3
  2100                           	file	"lcd.c"
  2101                           	line	157
  2102                           	global	__size_of_lcd_print
  2103                           	__size_of_lcd_print	equ	__end_of_lcd_print-_lcd_print
  2104  0033                     	
  2105                           _lcd_print:	
  2106  067B                     ;incstack = 0
  2107                           	opt	stack 5
  2108                           ; Regs used in _lcd_print: [wreg-fsr0h+status,2+status,0+pclath+cstack]
  2109                           ;lcd_print@lin stored from wreg
  2110                           	movwf	(lcd_print@lin)
  2111  067B  00FA               	line	159
  2112                           	
  2113                           l995:	
  2114  067C                     ;lcd.c: 157: void lcd_print( unsigned char lin, unsigned char col, const char * str );lc
                                 d.c: 158: {;lcd.c: 159:     char pos = col;
  2115                           	movf	(lcd_print@col),w
  2116  067C  0876               	movwf	(??_lcd_print+0)+0
  2117  067D  00F8               	movf	(??_lcd_print+0)+0,w
  2118  067E  0878               	movwf	(lcd_print@pos)
  2119  067F  00F9               	line	160
  2120                           	
  2121                           l997:	
  2122  0680                     ;lcd.c: 160:     lcd_lincol( lin, col );
  2123                           	movf	(lcd_print@col),w
  2124  0680  0876               	movwf	(??_lcd_print+0)+0
  2125  0681  00F8               	movf	(??_lcd_print+0)+0,w
  2126  0682  0878               	movwf	(lcd_lincol@col)
  2127  0683  00F3               	movf	(lcd_print@lin),w
  2128  0684  087A               	fcall	_lcd_lincol
  2129  0685  120A  118A  2620  120A  118A  	line	162
  2130                           ;lcd.c: 162:     while( *str )
  2131                           	goto	l1005
  2132  068A  2EA0               	
  2133                           l69:	
  2134  068B                     	line	164
  2135                           	
  2136                           l999:	
  2137  068B                     ;lcd.c: 163:     {;lcd.c: 164:         lcd_dataReg( *str );
  2138                           	movf	(lcd_print@str),w
  2139  068B  0877               	movwf	fsr0
  2140  068C  0084               	fcall	stringdir
  2141  068D  120A  118A  2003  120A  118A  	fcall	_lcd_dataReg
  2142  0692  120A  118A  26AE  120A  118A  	line	165
  2143                           	
  2144                           l1001:	
  2145  0697                     ;lcd.c: 165:         ++str;
  2146                           	movlw	low(01h)
  2147  0697  3001               	movwf	(??_lcd_print+0)+0
  2148  0698  00F8               	movf	(??_lcd_print+0)+0,w
  2149  0699  0878               	addwf	(lcd_print@str),f
  2150  069A  07F7               	line	166
  2151                           	
  2152                           l1003:	
  2153  069B                     ;lcd.c: 166:         ++pos;
  2154                           	movlw	low(01h)
  2155  069B  3001               	movwf	(??_lcd_print+0)+0
  2156  069C  00F8               	movf	(??_lcd_print+0)+0,w
  2157  069D  0878               	addwf	(lcd_print@pos),f
  2158  069E  07F9               	goto	l1005
  2159  069F  2EA0               	line	167
  2160                           ;lcd.c: 167:     }
  2161                           	
  2162                           l68:	
  2163  06A0                     	line	162
  2164                           	
  2165                           l1005:	
  2166  06A0                     ;lcd.c: 162:     while( *str )
  2167                           	movf	(lcd_print@str),w
  2168  06A0  0877               	movwf	fsr0
  2169  06A1  0084               	fcall	stringdir
  2170  06A2  120A  118A  2003  120A  118A  	xorlw	0
  2171  06A7  3A00               	skipz
  2172  06A8  1D03               	goto	u481
  2173  06A9  2EAB               	goto	u480
  2174  06AA  2EAC               u481:
  2175  06AB                     	goto	l999
  2176  06AB  2E8B               u480:
  2177  06AC                     	goto	l71
  2178  06AC  2EAD               	
  2179                           l70:	
  2180  06AD                     	line	168
  2181                           	
  2182                           l71:	
  2183  06AD                     	return
  2184  06AD  0008               	opt stack 0
  2185                           GLOBAL	__end_of_lcd_print
  2186                           	__end_of_lcd_print:
  2187  06AE                     	signat	_lcd_print,12409
  2188                           	global	_lcd_lincol
  2189                           
  2190 ;; *************** function _lcd_lincol *****************
  2191 ;; Defined at:
  2192 ;;		line 112 in file "lcd.c"
  2193 ;; Parameters:    Size  Location     Type
  2194 ;;  lin             1    wreg     unsigned char 
  2195 ;;  col             1    3[COMMON] unsigned char 
  2196 ;; Auto vars:     Size  Location     Type
  2197 ;;  lin             1    5[COMMON] unsigned char 
  2198 ;; Return value:  Size  Location     Type
  2199 ;;                  1    wreg      void 
  2200 ;; Registers used:
  2201 ;;		wreg, status,2, status,0, pclath, cstack
  2202 ;; Tracked objects:
  2203 ;;		On entry : 0/0
  2204 ;;		On exit  : 0/0
  2205 ;;		Unchanged: 0/0
  2206 ;; Data sizes:     COMMON   BANK0   BANK1   BANK3   BANK2
  2207 ;;      Params:         1       0       0       0       0
  2208 ;;      Locals:         1       0       0       0       0
  2209 ;;      Temps:          1       0       0       0       0
  2210 ;;      Totals:         3       0       0       0       0
  2211 ;;Total ram usage:        3 bytes
  2212 ;; Hardware stack levels used:    1
  2213 ;; Hardware stack levels required when called:    1
  2214 ;; This function calls:
  2215 ;;		_lcd_instReg
  2216 ;; This function is called by:
  2217 ;;		_lcd_print
  2218 ;;		_lcd_num
  2219 ;; This function uses a non-reentrant model
  2220 ;;
  2221                           psect	text4,local,class=CODE,delta=2,merge=1,group=0
  2222                           	line	112
  2223                           global __ptext4
  2224                           __ptext4:	;psect for function _lcd_lincol
  2225  0620                     psect	text4
  2226                           	file	"lcd.c"
  2227                           	line	112
  2228                           	global	__size_of_lcd_lincol
  2229                           	__size_of_lcd_lincol	equ	__end_of_lcd_lincol-_lcd_lincol
  2230  0013                     	
  2231                           _lcd_lincol:	
  2232  0620                     ;incstack = 0
  2233                           	opt	stack 5
  2234                           ; Regs used in _lcd_lincol: [wreg+status,2+status,0+pclath+cstack]
  2235                           ;lcd_lincol@lin stored from wreg
  2236                           	movwf	(lcd_lincol@lin)
  2237  0620  00F5               	line	114
  2238                           	
  2239                           l949:	
  2240  0621                     ;lcd.c: 112: void lcd_lincol( unsigned char lin, unsigned char col);lcd.c: 113: {;lcd.c:
                                  114:     lcd_instReg( (0x80+((0x40 * lin) + (col + 0x00) & 0x7F)) );
  2241                           	movf	(lcd_lincol@lin),w
  2242  0621  0875               	movwf	(??_lcd_lincol+0)+0
  2243  0622  00F4               	movlw	06h
  2244  0623  3006               u445:
  2245  0624                     	clrc
  2246  0624  1003               	rlf	(??_lcd_lincol+0)+0,f
  2247  0625  0DF4               	addlw	-1
  2248  0626  3EFF               	skipz
  2249  0627  1D03               	goto	u445
  2250  0628  2E24               	movf	(lcd_lincol@col),w
  2251  0629  0873               	addwf	0+(??_lcd_lincol+0)+0,w
  2252  062A  0774               	andlw	07Fh
  2253  062B  397F               	addlw	080h
  2254  062C  3E80               	fcall	_lcd_instReg
  2255  062D  120A  118A  2767  120A  118A  	line	115
  2256                           	
  2257                           l59:	
  2258  0632                     	return
  2259  0632  0008               	opt stack 0
  2260                           GLOBAL	__end_of_lcd_lincol
  2261                           	__end_of_lcd_lincol:
  2262  0633                     	signat	_lcd_lincol,8313
  2263                           	global	_lcd_dataReg
  2264                           
  2265 ;; *************** function _lcd_dataReg *****************
  2266 ;; Defined at:
  2267 ;;		line 94 in file "lcd.c"
  2268 ;; Parameters:    Size  Location     Type
  2269 ;;  d               1    wreg     unsigned char 
  2270 ;; Auto vars:     Size  Location     Type
  2271 ;;  d               1    2[COMMON] unsigned char 
  2272 ;; Return value:  Size  Location     Type
  2273 ;;                  1    wreg      void 
  2274 ;; Registers used:
  2275 ;;		wreg, status,2, status,0
  2276 ;; Tracked objects:
  2277 ;;		On entry : 0/0
  2278 ;;		On exit  : 0/0
  2279 ;;		Unchanged: 0/0
  2280 ;; Data sizes:     COMMON   BANK0   BANK1   BANK3   BANK2
  2281 ;;      Params:         0       0       0       0       0
  2282 ;;      Locals:         1       0       0       0       0
  2283 ;;      Temps:          2       0       0       0       0
  2284 ;;      Totals:         3       0       0       0       0
  2285 ;;Total ram usage:        3 bytes
  2286 ;; Hardware stack levels used:    1
  2287 ;; This function calls:
  2288 ;;		Nothing
  2289 ;; This function is called by:
  2290 ;;		_lcd_print
  2291 ;;		_lcd_num
  2292 ;; This function uses a non-reentrant model
  2293 ;;
  2294                           psect	text5,local,class=CODE,delta=2,merge=1,group=0
  2295                           	line	94
  2296                           global __ptext5
  2297                           __ptext5:	;psect for function _lcd_dataReg
  2298  06AE                     psect	text5
  2299                           	file	"lcd.c"
  2300                           	line	94
  2301                           	global	__size_of_lcd_dataReg
  2302                           	__size_of_lcd_dataReg	equ	__end_of_lcd_dataReg-_lcd_dataReg
  2303  0036                     	
  2304                           _lcd_dataReg:	
  2305  06AE                     ;incstack = 0
  2306                           	opt	stack 6
  2307                           ; Regs used in _lcd_dataReg: [wreg+status,2+status,0]
  2308                           ;lcd_dataReg@d stored from wreg
  2309                           	movwf	(lcd_dataReg@d)
  2310  06AE  00F2               	line	96
  2311                           	
  2312                           l931:	
  2313  06AF                     ;lcd.c: 94: void lcd_dataReg( unsigned char d );lcd.c: 95: {;lcd.c: 96:     PORTDbits.RD
                                 2 = 1;
  2314                           	bcf	status, 5	;RP0=0, select bank0
  2315  06AF  1283               	bcf	status, 6	;RP1=0, select bank0
  2316  06B0  1303               	bsf	(8),2	;volatile
  2317  06B1  1508               	line	97
  2318                           	
  2319                           l933:	
  2320  06B2                     ;lcd.c: 97:     PORTD = ((PORTD & 0x0F)|(d >> 4<<4));
  2321                           	movf	(lcd_dataReg@d),w
  2322  06B2  0872               	movwf	(??_lcd_dataReg+0)+0
  2323  06B3  00F0               	movlw	04h
  2324  06B4  3004               u415:
  2325  06B5                     	clrc
  2326  06B5  1003               	rrf	(??_lcd_dataReg+0)+0,f
  2327  06B6  0CF0               	addlw	-1
  2328  06B7  3EFF               	skipz
  2329  06B8  1D03               	goto	u415
  2330  06B9  2EB5               	movf	0+(??_lcd_dataReg+0)+0,w
  2331  06BA  0870               	movwf	(??_lcd_dataReg+1)+0
  2332  06BB  00F1               	movlw	04h
  2333  06BC  3004               u425:
  2334  06BD                     	clrc
  2335  06BD  1003               	rlf	(??_lcd_dataReg+1)+0,f
  2336  06BE  0DF1               	addlw	-1
  2337  06BF  3EFF               	skipz
  2338  06C0  1D03               	goto	u425
  2339  06C1  2EBD               	movf	(8),w	;volatile
  2340  06C2  0808               	andlw	0Fh
  2341  06C3  390F               	iorwf	0+(??_lcd_dataReg+1)+0,w
  2342  06C4  0471               	movwf	(8)	;volatile
  2343  06C5  0088               	line	98
  2344                           	
  2345                           l935:	
  2346  06C6                     ;lcd.c: 98:     PORTDbits.RD3 = 0;
  2347                           	bcf	(8),3	;volatile
  2348  06C6  1188               	line	99
  2349                           	
  2350                           l937:	
  2351  06C7                     ;lcd.c: 99:     _delay((unsigned long)((40)*(4000000/4000000.0)));
  2352                           	opt asmopt_push
  2353                           opt asmopt_off
  2354                           	movlw	13
  2355  06C7  300D               movwf	((??_lcd_dataReg+0)+0),f
  2356  06C8  00F0               	u607:
  2357  06C9                     decfsz	(??_lcd_dataReg+0)+0,f
  2358  06C9  0BF0               	goto	u607
  2359  06CA  2EC9               opt asmopt_pop
  2360                           
  2361                           	line	100
  2362                           	
  2363                           l939:	
  2364  06CB                     ;lcd.c: 100:     PORTDbits.RD3 = 1;
  2365                           	bcf	status, 5	;RP0=0, select bank0
  2366  06CB  1283               	bcf	status, 6	;RP1=0, select bank0
  2367  06CC  1303               	bsf	(8),3	;volatile
  2368  06CD  1588               	line	102
  2369                           	
  2370                           l941:	
  2371  06CE                     ;lcd.c: 102:     PORTDbits.RD2 = 1;
  2372                           	bsf	(8),2	;volatile
  2373  06CE  1508               	line	103
  2374                           	
  2375                           l943:	
  2376  06CF                     ;lcd.c: 103:     PORTD = ((PORTD & 0x0F)|(d<<4));
  2377                           	movf	(lcd_dataReg@d),w
  2378  06CF  0872               	movwf	(??_lcd_dataReg+0)+0
  2379  06D0  00F0               	movlw	04h
  2380  06D1  3004               u435:
  2381  06D2                     	clrc
  2382  06D2  1003               	rlf	(??_lcd_dataReg+0)+0,f
  2383  06D3  0DF0               	addlw	-1
  2384  06D4  3EFF               	skipz
  2385  06D5  1D03               	goto	u435
  2386  06D6  2ED2               	movf	(8),w	;volatile
  2387  06D7  0808               	andlw	0Fh
  2388  06D8  390F               	iorwf	0+(??_lcd_dataReg+0)+0,w
  2389  06D9  0470               	movwf	(8)	;volatile
  2390  06DA  0088               	line	104
  2391                           	
  2392                           l945:	
  2393  06DB                     ;lcd.c: 104:     PORTDbits.RD3 = 0;
  2394                           	bcf	(8),3	;volatile
  2395  06DB  1188               	line	105
  2396                           ;lcd.c: 105:     _delay((unsigned long)((40)*(4000000/4000000.0)));
  2397                           	opt asmopt_push
  2398                           opt asmopt_off
  2399                           	movlw	13
  2400  06DC  300D               movwf	((??_lcd_dataReg+0)+0),f
  2401  06DD  00F0               	u617:
  2402  06DE                     decfsz	(??_lcd_dataReg+0)+0,f
  2403  06DE  0BF0               	goto	u617
  2404  06DF  2EDE               opt asmopt_pop
  2405                           
  2406                           	line	106
  2407                           	
  2408                           l947:	
  2409  06E0                     ;lcd.c: 106:     PORTDbits.RD3 = 1;
  2410                           	bcf	status, 5	;RP0=0, select bank0
  2411  06E0  1283               	bcf	status, 6	;RP1=0, select bank0
  2412  06E1  1303               	bsf	(8),3	;volatile
  2413  06E2  1588               	line	107
  2414                           	
  2415                           l56:	
  2416  06E3                     	return
  2417  06E3  0008               	opt stack 0
  2418                           GLOBAL	__end_of_lcd_dataReg
  2419                           	__end_of_lcd_dataReg:
  2420  06E4                     	signat	_lcd_dataReg,4217
  2421                           	global	_lcd_init
  2422                           
  2423 ;; *************** function _lcd_init *****************
  2424 ;; Defined at:
  2425 ;;		line 122 in file "lcd.c"
  2426 ;; Parameters:    Size  Location     Type
  2427 ;;		None
  2428 ;; Auto vars:     Size  Location     Type
  2429 ;;		None
  2430 ;; Return value:  Size  Location     Type
  2431 ;;                  1    wreg      void 
  2432 ;; Registers used:
  2433 ;;		wreg, status,2, status,0, pclath, cstack
  2434 ;; Tracked objects:
  2435 ;;		On entry : 0/0
  2436 ;;		On exit  : 0/0
  2437 ;;		Unchanged: 0/0
  2438 ;; Data sizes:     COMMON   BANK0   BANK1   BANK3   BANK2
  2439 ;;      Params:         0       0       0       0       0
  2440 ;;      Locals:         0       0       0       0       0
  2441 ;;      Temps:          0       0       0       0       0
  2442 ;;      Totals:         0       0       0       0       0
  2443 ;;Total ram usage:        0 bytes
  2444 ;; Hardware stack levels used:    1
  2445 ;; Hardware stack levels required when called:    1
  2446 ;; This function calls:
  2447 ;;		_delay_ms
  2448 ;;		_lcd_instReg
  2449 ;; This function is called by:
  2450 ;;		_main
  2451 ;; This function uses a non-reentrant model
  2452 ;;
  2453                           psect	text6,local,class=CODE,delta=2,merge=1,group=0
  2454                           	line	122
  2455                           global __ptext6
  2456                           __ptext6:	;psect for function _lcd_init
  2457  06E4                     psect	text6
  2458                           	file	"lcd.c"
  2459                           	line	122
  2460                           	global	__size_of_lcd_init
  2461                           	__size_of_lcd_init	equ	__end_of_lcd_init-_lcd_init
  2462  003F                     	
  2463                           _lcd_init:	
  2464  06E4                     ;incstack = 0
  2465                           	opt	stack 6
  2466                           ; Regs used in _lcd_init: [wreg+status,2+status,0+pclath+cstack]
  2467                           	line	124
  2468                           	
  2469                           l951:	
  2470  06E4                     ;lcd.c: 124:     delay_ms(100);
  2471                           	movlw	064h
  2472  06E4  3064               	movwf	(delay_ms@t)
  2473  06E5  00F0               	movlw	0
  2474  06E6  3000               	movwf	((delay_ms@t))+1
  2475  06E7  00F1               	fcall	_delay_ms
  2476  06E8  120A  118A  2633  120A  118A  	line	125
  2477                           	
  2478                           l953:	
  2479  06ED                     ;lcd.c: 125:     TRISDbits.TRISD2 = 0;
  2480                           	bsf	status, 5	;RP0=1, select bank1
  2481  06ED  1683               	bcf	status, 6	;RP1=0, select bank1
  2482  06EE  1303               	bcf	(136)^080h,2	;volatile
  2483  06EF  1108               	line	126
  2484                           	
  2485                           l955:	
  2486  06F0                     ;lcd.c: 126:     TRISDbits.TRISD3 = 0;
  2487                           	bcf	(136)^080h,3	;volatile
  2488  06F0  1188               	line	127
  2489                           	
  2490                           l957:	
  2491  06F1                     ;lcd.c: 127:     TRISDbits.TRISD4 = 0;
  2492                           	bcf	(136)^080h,4	;volatile
  2493  06F1  1208               	line	128
  2494                           	
  2495                           l959:	
  2496  06F2                     ;lcd.c: 128:     TRISDbits.TRISD5 = 0;
  2497                           	bcf	(136)^080h,5	;volatile
  2498  06F2  1288               	line	129
  2499                           	
  2500                           l961:	
  2501  06F3                     ;lcd.c: 129:     TRISDbits.TRISD6 = 0;
  2502                           	bcf	(136)^080h,6	;volatile
  2503  06F3  1308               	line	130
  2504                           	
  2505                           l963:	
  2506  06F4                     ;lcd.c: 130:     TRISDbits.TRISD7 = 0;
  2507                           	bcf	(136)^080h,7	;volatile
  2508  06F4  1388               	line	132
  2509                           ;lcd.c: 132:     delay_ms(100);
  2510                           	movlw	064h
  2511  06F5  3064               	movwf	(delay_ms@t)
  2512  06F6  00F0               	movlw	0
  2513  06F7  3000               	movwf	((delay_ms@t))+1
  2514  06F8  00F1               	fcall	_delay_ms
  2515  06F9  120A  118A  2633  120A  118A  	line	133
  2516                           	
  2517                           l965:	
  2518  06FE                     ;lcd.c: 133:     PORTDbits.RD3 = 1;
  2519                           	bcf	status, 5	;RP0=0, select bank0
  2520  06FE  1283               	bcf	status, 6	;RP1=0, select bank0
  2521  06FF  1303               	bsf	(8),3	;volatile
  2522  0700  1588               	line	134
  2523                           ;lcd.c: 134:     lcd_instReg( 0x20|0x00|0x08 );
  2524                           	movlw	low(028h)
  2525  0701  3028               	fcall	_lcd_instReg
  2526  0702  120A  118A  2767  120A  118A  	line	135
  2527                           ;lcd.c: 135:     lcd_instReg( 0x08|0x04|0x00|0x00 );
  2528                           	movlw	low(0Ch)
  2529  0707  300C               	fcall	_lcd_instReg
  2530  0708  120A  118A  2767  120A  118A  	line	136
  2531                           ;lcd.c: 136:     lcd_instReg( 0x01 );
  2532                           	movlw	low(01h)
  2533  070D  3001               	fcall	_lcd_instReg
  2534  070E  120A  118A  2767  120A  118A  	line	137
  2535                           ;lcd.c: 137:     lcd_instReg( 0x02 );
  2536                           	movlw	low(02h)
  2537  0713  3002               	fcall	_lcd_instReg
  2538  0714  120A  118A  2767  120A  118A  	line	138
  2539                           ;lcd.c: 138:     delay_ms(100);
  2540                           	movlw	064h
  2541  0719  3064               	movwf	(delay_ms@t)
  2542  071A  00F0               	movlw	0
  2543  071B  3000               	movwf	((delay_ms@t))+1
  2544  071C  00F1               	fcall	_delay_ms
  2545  071D  120A  118A  2633  120A  118A  	line	139
  2546                           	
  2547                           l62:	
  2548  0722                     	return
  2549  0722  0008               	opt stack 0
  2550                           GLOBAL	__end_of_lcd_init
  2551                           	__end_of_lcd_init:
  2552  0723                     	signat	_lcd_init,89
  2553                           	global	_lcd_instReg
  2554                           
  2555 ;; *************** function _lcd_instReg *****************
  2556 ;; Defined at:
  2557 ;;		line 59 in file "lcd.c"
  2558 ;; Parameters:    Size  Location     Type
  2559 ;;  i               1    wreg     unsigned char 
  2560 ;; Auto vars:     Size  Location     Type
  2561 ;;  i               1    2[COMMON] unsigned char 
  2562 ;; Return value:  Size  Location     Type
  2563 ;;                  1    wreg      void 
  2564 ;; Registers used:
  2565 ;;		wreg, status,2, status,0
  2566 ;; Tracked objects:
  2567 ;;		On entry : 0/0
  2568 ;;		On exit  : 0/0
  2569 ;;		Unchanged: 0/0
  2570 ;; Data sizes:     COMMON   BANK0   BANK1   BANK3   BANK2
  2571 ;;      Params:         0       0       0       0       0
  2572 ;;      Locals:         1       0       0       0       0
  2573 ;;      Temps:          2       0       0       0       0
  2574 ;;      Totals:         3       0       0       0       0
  2575 ;;Total ram usage:        3 bytes
  2576 ;; Hardware stack levels used:    1
  2577 ;; This function calls:
  2578 ;;		Nothing
  2579 ;; This function is called by:
  2580 ;;		_lcd_lincol
  2581 ;;		_lcd_init
  2582 ;;		_lcd_clr
  2583 ;; This function uses a non-reentrant model
  2584 ;;
  2585                           psect	text7,local,class=CODE,delta=2,merge=1,group=0
  2586                           	line	59
  2587                           global __ptext7
  2588                           __ptext7:	;psect for function _lcd_instReg
  2589  0767                     psect	text7
  2590                           	file	"lcd.c"
  2591                           	line	59
  2592                           	global	__size_of_lcd_instReg
  2593                           	__size_of_lcd_instReg	equ	__end_of_lcd_instReg-_lcd_instReg
  2594  008B                     	
  2595                           _lcd_instReg:	
  2596  0767                     ;incstack = 0
  2597                           	opt	stack 5
  2598                           ; Regs used in _lcd_instReg: [wreg+status,2+status,0]
  2599                           ;lcd_instReg@i stored from wreg
  2600                           	movwf	(lcd_instReg@i)
  2601  0767  00F2               	line	61
  2602                           	
  2603                           l883:	
  2604  0768                     ;lcd.c: 59: void lcd_instReg( unsigned char i );lcd.c: 60: {;lcd.c: 61:     PORTDbits.RD
                                 2 = 0;
  2605                           	bcf	status, 5	;RP0=0, select bank0
  2606  0768  1283               	bcf	status, 6	;RP1=0, select bank0
  2607  0769  1303               	bcf	(8),2	;volatile
  2608  076A  1108               	line	62
  2609                           	
  2610                           l885:	
  2611  076B                     ;lcd.c: 62:     PORTD = ((PORTD & 0x0F)|(i>>4<<4));
  2612                           	movf	(lcd_instReg@i),w
  2613  076B  0872               	movwf	(??_lcd_instReg+0)+0
  2614  076C  00F0               	movlw	04h
  2615  076D  3004               u305:
  2616  076E                     	clrc
  2617  076E  1003               	rrf	(??_lcd_instReg+0)+0,f
  2618  076F  0CF0               	addlw	-1
  2619  0770  3EFF               	skipz
  2620  0771  1D03               	goto	u305
  2621  0772  2F6E               	movf	0+(??_lcd_instReg+0)+0,w
  2622  0773  0870               	movwf	(??_lcd_instReg+1)+0
  2623  0774  00F1               	movlw	04h
  2624  0775  3004               u315:
  2625  0776                     	clrc
  2626  0776  1003               	rlf	(??_lcd_instReg+1)+0,f
  2627  0777  0DF1               	addlw	-1
  2628  0778  3EFF               	skipz
  2629  0779  1D03               	goto	u315
  2630  077A  2F76               	movf	(8),w	;volatile
  2631  077B  0808               	andlw	0Fh
  2632  077C  390F               	iorwf	0+(??_lcd_instReg+1)+0,w
  2633  077D  0471               	movwf	(8)	;volatile
  2634  077E  0088               	line	64
  2635                           	
  2636                           l887:	
  2637  077F                     ;lcd.c: 64:     PORTDbits.RD3 = 0;
  2638                           	bcf	(8),3	;volatile
  2639  077F  1188               	line	65
  2640                           ;lcd.c: 65:     if( i == 0x01 || i == 0x02 )
  2641                           		decf	((lcd_instReg@i)),w
  2642  0780  0372               	btfsc	status,2
  2643  0781  1903               	goto	u321
  2644  0782  2F84               	goto	u320
  2645  0783  2F85               u321:
  2646  0784                     	goto	l891
  2647  0784  2F8C               u320:
  2648  0785                     	
  2649                           l889:	
  2650  0785                     		movlw	2
  2651  0785  3002               	xorwf	((lcd_instReg@i)),w
  2652  0786  0672               	btfss	status,2
  2653  0787  1D03               	goto	u331
  2654  0788  2F8A               	goto	u330
  2655  0789  2F8B               u331:
  2656  078A                     	goto	l893
  2657  078A  2F96               u330:
  2658  078B                     	goto	l891
  2659  078B  2F8C               	
  2660                           l46:	
  2661  078C                     	line	66
  2662                           	
  2663                           l891:	
  2664  078C                     ;lcd.c: 66:         _delay((unsigned long)((2)*(4000000/4000.0)));
  2665                           	opt asmopt_push
  2666                           opt asmopt_off
  2667                           movlw	3
  2668  078C  3003               movwf	((??_lcd_instReg+0)+0+1),f
  2669  078D  00F1               	movlw	151
  2670  078E  3097               movwf	((??_lcd_instReg+0)+0),f
  2671  078F  00F0               	u627:
  2672  0790                     decfsz	((??_lcd_instReg+0)+0),f
  2673  0790  0BF0               	goto	u627
  2674  0791  2F90               	decfsz	((??_lcd_instReg+0)+0+1),f
  2675  0792  0BF1               	goto	u627
  2676  0793  2F90               	nop2
  2677  0794  2F95               opt asmopt_pop
  2678                           
  2679                           	goto	l895
  2680  0795  2F9B               	line	67
  2681                           ;lcd.c: 67:     else
  2682                           	
  2683                           l44:	
  2684  0796                     	line	68
  2685                           	
  2686                           l893:	
  2687  0796                     ;lcd.c: 68:         _delay((unsigned long)((40)*(4000000/4000000.0)));
  2688                           	opt asmopt_push
  2689                           opt asmopt_off
  2690                           	movlw	13
  2691  0796  300D               movwf	((??_lcd_instReg+0)+0),f
  2692  0797  00F0               	u637:
  2693  0798                     decfsz	(??_lcd_instReg+0)+0,f
  2694  0798  0BF0               	goto	u637
  2695  0799  2F98               opt asmopt_pop
  2696                           
  2697                           	goto	l895
  2698  079A  2F9B               	
  2699                           l47:	
  2700  079B                     	line	69
  2701                           	
  2702                           l895:	
  2703  079B                     ;lcd.c: 69:     PORTDbits.RD3 = 1;
  2704                           	bcf	status, 5	;RP0=0, select bank0
  2705  079B  1283               	bcf	status, 6	;RP1=0, select bank0
  2706  079C  1303               	bsf	(8),3	;volatile
  2707  079D  1588               	line	72
  2708                           	
  2709                           l897:	
  2710  079E                     ;lcd.c: 72:     if( (i & 0xF0) == (0x20 | 0x00) )
  2711                           	movlw	low(0F0h)
  2712  079E  30F0               	andwf	(lcd_instReg@i),w
  2713  079F  0572               	movwf	(??_lcd_instReg+0)+0
  2714  07A0  00F0               		movlw	32
  2715  07A1  3020               	xorwf	((??_lcd_instReg+0)+0),w
  2716  07A2  0670               	btfss	status,2
  2717  07A3  1D03               	goto	u341
  2718  07A4  2FA6               	goto	u340
  2719  07A5  2FA7               u341:
  2720  07A6                     	goto	l909
  2721  07A6  2FC5               u340:
  2722  07A7                     	line	74
  2723                           	
  2724                           l899:	
  2725  07A7                     ;lcd.c: 73:     {;lcd.c: 74:         PORTDbits.RD2 = 0;
  2726                           	bcf	(8),2	;volatile
  2727  07A7  1108               	line	75
  2728                           	
  2729                           l901:	
  2730  07A8                     ;lcd.c: 75:         PORTD = ((PORTD & 0x0F)|(i>>4<<4));
  2731                           	movf	(lcd_instReg@i),w
  2732  07A8  0872               	movwf	(??_lcd_instReg+0)+0
  2733  07A9  00F0               	movlw	04h
  2734  07AA  3004               u355:
  2735  07AB                     	clrc
  2736  07AB  1003               	rrf	(??_lcd_instReg+0)+0,f
  2737  07AC  0CF0               	addlw	-1
  2738  07AD  3EFF               	skipz
  2739  07AE  1D03               	goto	u355
  2740  07AF  2FAB               	movf	0+(??_lcd_instReg+0)+0,w
  2741  07B0  0870               	movwf	(??_lcd_instReg+1)+0
  2742  07B1  00F1               	movlw	04h
  2743  07B2  3004               u365:
  2744  07B3                     	clrc
  2745  07B3  1003               	rlf	(??_lcd_instReg+1)+0,f
  2746  07B4  0DF1               	addlw	-1
  2747  07B5  3EFF               	skipz
  2748  07B6  1D03               	goto	u365
  2749  07B7  2FB3               	movf	(8),w	;volatile
  2750  07B8  0808               	andlw	0Fh
  2751  07B9  390F               	iorwf	0+(??_lcd_instReg+1)+0,w
  2752  07BA  0471               	movwf	(8)	;volatile
  2753  07BB  0088               	line	76
  2754                           	
  2755                           l903:	
  2756  07BC                     ;lcd.c: 76:         PORTDbits.RD3 = 0;
  2757                           	bcf	(8),3	;volatile
  2758  07BC  1188               	line	77
  2759                           	
  2760                           l905:	
  2761  07BD                     ;lcd.c: 77:         _delay((unsigned long)((40)*(4000000/4000000.0)));
  2762                           	opt asmopt_push
  2763                           opt asmopt_off
  2764                           	movlw	13
  2765  07BD  300D               movwf	((??_lcd_instReg+0)+0),f
  2766  07BE  00F0               	u647:
  2767  07BF                     decfsz	(??_lcd_instReg+0)+0,f
  2768  07BF  0BF0               	goto	u647
  2769  07C0  2FBF               opt asmopt_pop
  2770                           
  2771                           	line	78
  2772                           	
  2773                           l907:	
  2774  07C1                     ;lcd.c: 78:         PORTDbits.RD3 = 1;
  2775                           	bcf	status, 5	;RP0=0, select bank0
  2776  07C1  1283               	bcf	status, 6	;RP1=0, select bank0
  2777  07C2  1303               	bsf	(8),3	;volatile
  2778  07C3  1588               	goto	l909
  2779  07C4  2FC5               	line	79
  2780                           ;lcd.c: 79:     }
  2781                           	
  2782                           l48:	
  2783  07C5                     	line	81
  2784                           	
  2785                           l909:	
  2786  07C5                     ;lcd.c: 81:     PORTDbits.RD2 = 0;
  2787                           	bcf	(8),2	;volatile
  2788  07C5  1108               	line	82
  2789                           	
  2790                           l911:	
  2791  07C6                     ;lcd.c: 82:     PORTD = ((PORTD & 0x0F)|(i<<4));
  2792                           	movf	(lcd_instReg@i),w
  2793  07C6  0872               	movwf	(??_lcd_instReg+0)+0
  2794  07C7  00F0               	movlw	04h
  2795  07C8  3004               u375:
  2796  07C9                     	clrc
  2797  07C9  1003               	rlf	(??_lcd_instReg+0)+0,f
  2798  07CA  0DF0               	addlw	-1
  2799  07CB  3EFF               	skipz
  2800  07CC  1D03               	goto	u375
  2801  07CD  2FC9               	movf	(8),w	;volatile
  2802  07CE  0808               	andlw	0Fh
  2803  07CF  390F               	iorwf	0+(??_lcd_instReg+0)+0,w
  2804  07D0  0470               	movwf	(8)	;volatile
  2805  07D1  0088               	line	83
  2806                           	
  2807                           l913:	
  2808  07D2                     ;lcd.c: 83:     PORTDbits.RD3 = 0;
  2809                           	bcf	(8),3	;volatile
  2810  07D2  1188               	line	84
  2811                           	
  2812                           l915:	
  2813  07D3                     ;lcd.c: 84:     if( i == 0x01 || i == 0x02 )
  2814                           		decf	((lcd_instReg@i)),w
  2815  07D3  0372               	btfsc	status,2
  2816  07D4  1903               	goto	u381
  2817  07D5  2FD7               	goto	u380
  2818  07D6  2FD8               u381:
  2819  07D7                     	goto	l919
  2820  07D7  2FDF               u380:
  2821  07D8                     	
  2822                           l917:	
  2823  07D8                     		movlw	2
  2824  07D8  3002               	xorwf	((lcd_instReg@i)),w
  2825  07D9  0672               	btfss	status,2
  2826  07DA  1D03               	goto	u391
  2827  07DB  2FDD               	goto	u390
  2828  07DC  2FDE               u391:
  2829  07DD                     	goto	l921
  2830  07DD  2FE9               u390:
  2831  07DE                     	goto	l919
  2832  07DE  2FDF               	
  2833                           l51:	
  2834  07DF                     	line	85
  2835                           	
  2836                           l919:	
  2837  07DF                     ;lcd.c: 85:         _delay((unsigned long)((2)*(4000000/4000.0)));
  2838                           	opt asmopt_push
  2839                           opt asmopt_off
  2840                           movlw	3
  2841  07DF  3003               movwf	((??_lcd_instReg+0)+0+1),f
  2842  07E0  00F1               	movlw	151
  2843  07E1  3097               movwf	((??_lcd_instReg+0)+0),f
  2844  07E2  00F0               	u657:
  2845  07E3                     decfsz	((??_lcd_instReg+0)+0),f
  2846  07E3  0BF0               	goto	u657
  2847  07E4  2FE3               	decfsz	((??_lcd_instReg+0)+0+1),f
  2848  07E5  0BF1               	goto	u657
  2849  07E6  2FE3               	nop2
  2850  07E7  2FE8               opt asmopt_pop
  2851                           
  2852                           	goto	l923
  2853  07E8  2FEE               	line	86
  2854                           ;lcd.c: 86:     else
  2855                           	
  2856                           l49:	
  2857  07E9                     	line	87
  2858                           	
  2859                           l921:	
  2860  07E9                     ;lcd.c: 87:         _delay((unsigned long)((40)*(4000000/4000000.0)));
  2861                           	opt asmopt_push
  2862                           opt asmopt_off
  2863                           	movlw	13
  2864  07E9  300D               movwf	((??_lcd_instReg+0)+0),f
  2865  07EA  00F0               	u667:
  2866  07EB                     decfsz	(??_lcd_instReg+0)+0,f
  2867  07EB  0BF0               	goto	u667
  2868  07EC  2FEB               opt asmopt_pop
  2869                           
  2870                           	goto	l923
  2871  07ED  2FEE               	
  2872                           l52:	
  2873  07EE                     	line	88
  2874                           	
  2875                           l923:	
  2876  07EE                     ;lcd.c: 88:     PORTDbits.RD3 = 1;
  2877                           	bcf	status, 5	;RP0=0, select bank0
  2878  07EE  1283               	bcf	status, 6	;RP1=0, select bank0
  2879  07EF  1303               	bsf	(8),3	;volatile
  2880  07F0  1588               	line	89
  2881                           	
  2882                           l53:	
  2883  07F1                     	return
  2884  07F1  0008               	opt stack 0
  2885                           GLOBAL	__end_of_lcd_instReg
  2886                           	__end_of_lcd_instReg:
  2887  07F2                     	signat	_lcd_instReg,4217
  2888                           	global	_delay_ms
  2889                           
  2890 ;; *************** function _delay_ms *****************
  2891 ;; Defined at:
  2892 ;;		line 12 in file "delay.c"
  2893 ;; Parameters:    Size  Location     Type
  2894 ;;  t               2    0[COMMON] unsigned int 
  2895 ;; Auto vars:     Size  Location     Type
  2896 ;;		None
  2897 ;; Return value:  Size  Location     Type
  2898 ;;                  1    wreg      void 
  2899 ;; Registers used:
  2900 ;;		wreg, status,2, status,0
  2901 ;; Tracked objects:
  2902 ;;		On entry : 0/0
  2903 ;;		On exit  : 0/0
  2904 ;;		Unchanged: 0/0
  2905 ;; Data sizes:     COMMON   BANK0   BANK1   BANK3   BANK2
  2906 ;;      Params:         2       0       0       0       0
  2907 ;;      Locals:         0       0       0       0       0
  2908 ;;      Temps:          1       0       0       0       0
  2909 ;;      Totals:         3       0       0       0       0
  2910 ;;Total ram usage:        3 bytes
  2911 ;; Hardware stack levels used:    1
  2912 ;; This function calls:
  2913 ;;		Nothing
  2914 ;; This function is called by:
  2915 ;;		_lcd_init
  2916 ;; This function uses a non-reentrant model
  2917 ;;
  2918                           psect	text8,local,class=CODE,delta=2,merge=1,group=0
  2919                           	file	"delay.c"
  2920                           	line	12
  2921                           global __ptext8
  2922                           __ptext8:	;psect for function _delay_ms
  2923  0633                     psect	text8
  2924                           	file	"delay.c"
  2925                           	line	12
  2926                           	global	__size_of_delay_ms
  2927                           	__size_of_delay_ms	equ	__end_of_delay_ms-_delay_ms
  2928  0017                     	
  2929                           _delay_ms:	
  2930  0633                     ;incstack = 0
  2931                           	opt	stack 6
  2932                           ; Regs used in _delay_ms: [wreg+status,2+status,0]
  2933                           	line	14
  2934                           	
  2935                           l925:	
  2936  0633                     ;delay.c: 12: void delay_ms( unsigned int t );delay.c: 13: {;delay.c: 14:     while( t )
                                 
  2937                           	goto	l929
  2938  0633  2E42               	
  2939                           l29:	
  2940  0634                     	line	16
  2941                           	
  2942                           l927:	
  2943  0634                     ;delay.c: 15:     {;delay.c: 16:         _delay((unsigned long)((1)*(4000000/4000.0)));

  2944                           	opt asmopt_push
  2945                           opt asmopt_off
  2946                           	movlw	199
  2947  0634  30C7               movwf	((??_delay_ms+0)+0),f
  2948  0635  00F2               	u677:
  2949  0636                     	nop2
  2950  0636  2E37               decfsz	(??_delay_ms+0)+0,f
  2951  0637  0BF2               	goto	u677
  2952  0638  2E36               	nop2
  2953  0639  2E3A               	nop2
  2954  063A  2E3B               opt asmopt_pop
  2955                           
  2956                           	line	17
  2957                           ;delay.c: 17:         --t;
  2958                           	movlw	01h
  2959  063B  3001               	subwf	(delay_ms@t),f
  2960  063C  02F0               	movlw	0
  2961  063D  3000               	skipc
  2962  063E  1C03               	decf	(delay_ms@t+1),f
  2963  063F  03F1               	subwf	(delay_ms@t+1),f
  2964  0640  02F1               	goto	l929
  2965  0641  2E42               	line	18
  2966                           ;delay.c: 18:     }
  2967                           	
  2968                           l28:	
  2969  0642                     	line	14
  2970                           	
  2971                           l929:	
  2972  0642                     ;delay.c: 14:     while( t )
  2973                           	movf	((delay_ms@t)),w
  2974  0642  0870               iorwf	((delay_ms@t+1)),w
  2975  0643  0471               	btfss	status,2
  2976  0644  1D03               	goto	u401
  2977  0645  2E47               	goto	u400
  2978  0646  2E48               u401:
  2979  0647                     	goto	l927
  2980  0647  2E34               u400:
  2981  0648                     	goto	l31
  2982  0648  2E49               	
  2983                           l30:	
  2984  0649                     	line	19
  2985                           	
  2986                           l31:	
  2987  0649                     	return
  2988  0649  0008               	opt stack 0
  2989                           GLOBAL	__end_of_delay_ms
  2990                           	__end_of_delay_ms:
  2991  064A                     	signat	_delay_ms,4217
  2992                           global	___latbits
  2993                           ___latbits	equ	2
  2994  0002                     	global	btemp
  2995                           	btemp set 07Eh
  2996  007E                     
  2997                           	DABS	1,126,2	;btemp
  2998                           	global	wtemp0
  2999                           	wtemp0 set btemp+0
  3000  007E                     	end


Data Sizes:
    Strings     6
    Constant    0
    Data        0
    BSS         8
    Persistent  0
    Stack       0

Auto Spaces:
    Space          Size  Autos    Used
    COMMON           14     12      14
    BANK0            80      0       6
    BANK1            80      0       0
    BANK3            96      0       0
    BANK2            96      0       0

Pointer List with Targets:

    lcd_print@str	PTR const unsigned char  size(1) Largest target is 6
		 -> STR_1(CODE[6]), 


Critical Paths under _main in COMMON

    _main->_lcd_print
    _lcd_print->_lcd_lincol
    _lcd_lincol->_lcd_instReg
    _lcd_init->_delay_ms
    _lcd_init->_lcd_instReg

Critical Paths under _main in BANK0

    None.

Critical Paths under _main in BANK1

    None.

Critical Paths under _main in BANK3

    None.

Critical Paths under _main in BANK2

    None.

Call Graph Tables:

 ---------------------------------------------------------------------------------
 (Depth) Function   	        Calls       Base Space   Used Autos Params    Refs
 ---------------------------------------------------------------------------------
 (0) _main                                                 1     1      0    1294
                                             11 COMMON     1     1      0
                           _lcd_init
                          _lcd_print
                         _prs_detect
                           _prs_init
 ---------------------------------------------------------------------------------
 (1) _prs_init                                             0     0      0       0
 ---------------------------------------------------------------------------------
 (1) _prs_detect                                           3     2      1     186
                                              0 COMMON     3     2      1
 ---------------------------------------------------------------------------------
 (1) _lcd_print                                            5     3      2     681
                                              6 COMMON     5     3      2
                        _lcd_dataReg
                         _lcd_lincol
 ---------------------------------------------------------------------------------
 (2) _lcd_lincol                                           3     2      1     372
                                              3 COMMON     3     2      1
                        _lcd_instReg
 ---------------------------------------------------------------------------------
 (2) _lcd_dataReg                                          3     3      0      44
                                              0 COMMON     3     3      0
 ---------------------------------------------------------------------------------
 (1) _lcd_init                                             0     0      0     427
                           _delay_ms
                        _lcd_instReg
 ---------------------------------------------------------------------------------
 (3) _lcd_instReg                                          3     3      0     176
                                              0 COMMON     3     3      0
 ---------------------------------------------------------------------------------
 (2) _delay_ms                                             3     1      2     251
                                              0 COMMON     3     1      2
 ---------------------------------------------------------------------------------
 Estimated maximum stack depth 3
 ---------------------------------------------------------------------------------

 Call Graph Graphs:

 _main (ROOT)
   _lcd_init
     _delay_ms
     _lcd_instReg
   _lcd_print
     _lcd_dataReg
     _lcd_lincol
       _lcd_instReg
   _prs_detect
   _prs_init

 Address spaces:
Name               Size   Autos  Total    Cost      Usage
BITCOMMON            E      0       0       0        0.0%
EEDATA             100      0       0       0        0.0%
NULL                 0      0       0       0        0.0%
CODE                 0      0       0       0        0.0%
COMMON               E      C       E       1      100.0%
BITSFR0              0      0       0       1        0.0%
SFR0                 0      0       0       1        0.0%
BITSFR1              0      0       0       2        0.0%
SFR1                 0      0       0       2        0.0%
STACK                0      0       0       2        0.0%
ABS                  0      0      14       3        0.0%
BITBANK0            50      0       0       4        0.0%
BITSFR3              0      0       0       4        0.0%
SFR3                 0      0       0       4        0.0%
BANK0               50      0       6       5        7.5%
BITSFR2              0      0       0       5        0.0%
SFR2                 0      0       0       5        0.0%
BITBANK1            50      0       0       6        0.0%
BANK1               50      0       0       7        0.0%
BITBANK3            60      0       0       8        0.0%
BANK3               60      0       0       9        0.0%
BITBANK2            60      0       0      10        0.0%
BANK2               60      0       0      11        0.0%
DATA                 0      0      14      12        0.0%


Microchip Technology PIC Macro Assembler V2.00 build -1524193055 
Symbol Table                                                                                   Fri Aug 19 11:22:43 2022

                       pc 0002               __CFG_CP$OFF 0000              lcd_dataReg@d 0072  
                      l20 0676                        l21 0677                        l30 0649  
                      l22 0678                        l31 0649                        l23 0678  
                      l51 07DF                        l19 065A                        l28 0642  
                      l52 07EE                        l44 0796                        l29 0634  
                      l53 07F1                        l46 078C                        l62 0722  
                      l70 06AD                        l47 079B                        l71 06AD  
                      l48 07C5                        l56 06E3                        l49 07E9  
                      l59 0632                        l68 06A0                        l69 068B  
                      fsr 0004                       l121 073B                       l122 0766  
                     l123 0765                       l124 0766                       l118 061F  
                     l901 07A8                       l911 07C6                       l903 07BC  
                     l921 07E9                       l913 07D2                       l905 07BD  
                     l923 07EE                       l915 07D3                       l907 07C1  
                     l931 06AF                       l925 0633                       l917 07D8  
                     l909 07C5                       l941 06CE                       l933 06B2  
                     l927 0634                       l919 07DF                       l951 06E4  
                     l943 06CF                       l935 06C6                       l929 0642  
                     l961 06F3                       l953 06ED                       l945 06DB  
                     l937 06C7                       l891 078C                       l883 0768  
                     l963 06F4                       l955 06F0                       l947 06E0  
                     l939 06CB                       l971 061D                       l893 0796  
                     l885 076B                       l965 06FE                       l957 06F1  
                     l949 0621                       l981 0734                       l973 061E  
                     l895 079B                       l887 077F                       l959 06F2  
                     l991 075C                       l983 0735                       l975 0724  
                     l967 0615                       l897 079E                       l889 0785  
                     l993 075F                       l985 073B                       l977 072B  
                     l969 0619                       l899 07A7                       l995 067C  
                     l987 0740                       l979 0730                       l997 0680  
                     l989 074D                       l999 068B                       u400 0648  
                     u320 0785                       u401 0647                       u321 0784  
                     u305 076E                       u330 078B                       u331 078A  
                     u315 0776                       u340 07A7                       u341 07A6  
                     u415 06B5                       u425 06BD                       u450 0730  
            __CFG_CPD$OFF 0000                       u355 07AB                       u435 06D2  
                     u451 072F                       u380 07D8                       u460 0740  
                     u381 07D7                       u365 07B3                       u445 0624  
                     u461 073F                       u390 07DE                       u470 075C  
                     u391 07DD                       u375 07C9                       u607 06C9  
                     u471 075B                       u480 06AC                       u617 06DE  
                     u481 06AB                       u490 0669                       u627 0790  
                     u475 0758                       u491 0668                       u637 0798  
                     u647 07BF                       u657 07E3                       u667 07EB  
                     u677 0636                       u597 0748                       _num 0024  
                     _prs 007C                       fsr0 0004              __CFG_LVP$OFF 0000  
                    l1001 0697                      l1003 069B                      l1011 0654  
                    l1005 06A0                      l1013 065A                      l1015 0664  
                    l1007 064A                      l1017 0669                      l1009 064F  
                    STR_1 0009              __CFG_WRT$OFF 0000                      _main 064A  
                    _modo 0022                      btemp 007E                      start 0000  
           __CFG_IESO$OFF 0000              lcd_instReg@i 0072                     ?_main 0070  
           __CFG_WDTE$OFF 0000                     _PORTD 0008              lcd_print@col 0076  
            lcd_print@lin 007A            __CFG_FCMEN$OFF 0000              lcd_print@pos 0079  
            lcd_print@str 0077                     _aviso 007D            __CFG_BOREN$OFF 0000  
                   pclath 000A                     status 0003                     wtemp0 007E  
           lcd_lincol@col 0073             lcd_lincol@lin 0075            __CFG_MCLRE$OFF 0000  
         __initialization 07F2              __end_of_main 067B                    ??_main 007B  
        __end_of_delay_ms 064A            __CFG_PWRTE$OFF 0000      __size_of_lcd_dataReg 0036  
        __end_of_lcd_init 0723      __size_of_lcd_instReg 008B          __end_of_prs_init 0620  
 __end_of__initialization 07FC            __pcstackCOMMON 0070        __size_of_lcd_print 0033  
              __pbssBANK0 0020                __pmaintext 064A                 ?_delay_ms 0070  
              _lcd_lincol 0620                 ?_lcd_init 0070                __stringtab 0003  
       __end_of_lcd_print 06AE                 ?_prs_init 0070                   __ptext1 0615  
                 __ptext2 0723                   __ptext3 067B                   __ptext4 0620  
                 __ptext5 06AE                   __ptext6 06E4                   __ptext7 0767  
                 __ptext8 0633                ??_delay_ms 0072                ??_lcd_init 0073  
    end_of_initialization 07FC                ??_prs_init 0070                 _PORTCbits 0007  
               _PORTDbits 0008                _prs_detect 0723                 _TRISCbits 0087  
             ?_lcd_lincol 0073                 _TRISDbits 0088             ??_lcd_dataReg 0070  
             prs_detect@s 0072               prs_detect@w 0070             ??_lcd_instReg 0070  
     start_initialization 07F2  __CFG_FOSC$INTRC_NOCLKOUT 0000       __end_of_lcd_dataReg 06E4  
     __size_of_lcd_lincol 0013       __end_of_lcd_instReg 07F2               ?_prs_detect 0070  
             __pbssCOMMON 007C                 ___latbits 0002         __size_of_delay_ms 0017  
       __size_of_lcd_init 003F         __size_of_prs_init 000B                 __pstrings 0003  
               _lcd_print 067B               _lcd_dataReg 06AE                 delay_ms@t 0070  
     __size_of_prs_detect 0044               _lcd_instReg 0767                ?_lcd_print 0076  
             __stringbase 0008              ??_lcd_lincol 0074        __end_of_lcd_lincol 0633  
      __end_of__stringtab 0009                  _delay_ms 0633         __CFG_BOR4V$BOR40V 0000  
                _lcd_init 06E4             __size_of_main 0031                  _t_sensor 0020  
                _prs_init 0615               ??_lcd_print 0078              ??_prs_detect 0071  
               stringcode 0003        __end_of_prs_detect 0767                  stringdir 0003  
                stringtab 0003              ?_lcd_dataReg 0070              ?_lcd_instReg 0070  
